
a.out:     file format elf64-littleriscv


Disassembly of section .text:

00000000000100b0 <register_fini>:
   100b0:	00000793          	li	a5,0
   100b4:	c799                	beqz	a5,100c2 <register_fini+0x12>
   100b6:	00002517          	auipc	a0,0x2
   100ba:	51850513          	addi	a0,a0,1304 # 125ce <__libc_fini_array>
   100be:	6d90806f          	j	18f96 <atexit>
   100c2:	8082                	ret

00000000000100c4 <_start>:
   100c4:	0000f197          	auipc	gp,0xf
   100c8:	dd418193          	addi	gp,gp,-556 # 1ee98 <__global_pointer$>
   100cc:	77018513          	addi	a0,gp,1904 # 1f608 <_PathLocale>
   100d0:	0000f617          	auipc	a2,0xf
   100d4:	5c860613          	addi	a2,a2,1480 # 1f698 <__BSS_END__>
   100d8:	8e09                	sub	a2,a2,a0
   100da:	4581                	li	a1,0
   100dc:	126000ef          	jal	ra,10202 <memset>
   100e0:	00009517          	auipc	a0,0x9
   100e4:	eb650513          	addi	a0,a0,-330 # 18f96 <atexit>
   100e8:	c519                	beqz	a0,100f6 <_start+0x32>
   100ea:	00002517          	auipc	a0,0x2
   100ee:	4e450513          	addi	a0,a0,1252 # 125ce <__libc_fini_array>
   100f2:	6a5080ef          	jal	ra,18f96 <atexit>
   100f6:	0a2000ef          	jal	ra,10198 <__libc_init_array>
   100fa:	4502                	lw	a0,0(sp)
   100fc:	002c                	addi	a1,sp,8
   100fe:	4601                	li	a2,0
   10100:	056000ef          	jal	ra,10156 <main>
   10104:	a89d                	j	1017a <exit>

0000000000010106 <__do_global_dtors_aux>:
   10106:	1141                	addi	sp,sp,-16
   10108:	e022                	sd	s0,0(sp)
   1010a:	7a018413          	addi	s0,gp,1952 # 1f638 <completed.1>
   1010e:	00044783          	lbu	a5,0(s0)
   10112:	e406                	sd	ra,8(sp)
   10114:	ef99                	bnez	a5,10132 <__do_global_dtors_aux+0x2c>
   10116:	00000793          	li	a5,0
   1011a:	cb89                	beqz	a5,1012c <__do_global_dtors_aux+0x26>
   1011c:	0000e517          	auipc	a0,0xe
   10120:	32450513          	addi	a0,a0,804 # 1e440 <__FRAME_END__>
   10124:	00000097          	auipc	ra,0x0
   10128:	000000e7          	jalr	zero # 0 <decrypt>
   1012c:	4785                	li	a5,1
   1012e:	00f40023          	sb	a5,0(s0)
   10132:	60a2                	ld	ra,8(sp)
   10134:	6402                	ld	s0,0(sp)
   10136:	0141                	addi	sp,sp,16
   10138:	8082                	ret

000000000001013a <frame_dummy>:
   1013a:	00000793          	li	a5,0
   1013e:	cb99                	beqz	a5,10154 <frame_dummy+0x1a>
   10140:	7a818593          	addi	a1,gp,1960 # 1f640 <object.0>
   10144:	0000e517          	auipc	a0,0xe
   10148:	2fc50513          	addi	a0,a0,764 # 1e440 <__FRAME_END__>
   1014c:	00000317          	auipc	t1,0x0
   10150:	00000067          	jr	zero # 0 <decrypt>
   10154:	8082                	ret

0000000000010156 <main>:
   10156:	1141                	addi	sp,sp,-16
   10158:	e406                	sd	ra,8(sp)
   1015a:	e022                	sd	s0,0(sp)
   1015c:	0800                	addi	s0,sp,16
   1015e:	67f9                	lui	a5,0x1e
   10160:	46078593          	addi	a1,a5,1120 # 1e460 <__DATA_BEGIN__>
   10164:	67f1                	lui	a5,0x1c
   10166:	62878513          	addi	a0,a5,1576 # 1c628 <__clzdi2+0x5a>
   1016a:	164000ef          	jal	ra,102ce <printf>
   1016e:	4781                	li	a5,0
   10170:	853e                	mv	a0,a5
   10172:	60a2                	ld	ra,8(sp)
   10174:	6402                	ld	s0,0(sp)
   10176:	0141                	addi	sp,sp,16
   10178:	8082                	ret

000000000001017a <exit>:
   1017a:	1141                	addi	sp,sp,-16
   1017c:	4581                	li	a1,0
   1017e:	e022                	sd	s0,0(sp)
   10180:	e406                	sd	ra,8(sp)
   10182:	842a                	mv	s0,a0
   10184:	6df010ef          	jal	ra,12062 <__call_exitprocs>
   10188:	7401b503          	ld	a0,1856(gp) # 1f5d8 <_global_impure_ptr>
   1018c:	6d3c                	ld	a5,88(a0)
   1018e:	c391                	beqz	a5,10192 <exit+0x18>
   10190:	9782                	jalr	a5
   10192:	8522                	mv	a0,s0
   10194:	6850a0ef          	jal	ra,1b018 <_exit>

0000000000010198 <__libc_init_array>:
   10198:	1101                	addi	sp,sp,-32
   1019a:	e822                	sd	s0,16(sp)
   1019c:	e04a                	sd	s2,0(sp)
   1019e:	0000e417          	auipc	s0,0xe
   101a2:	2a640413          	addi	s0,s0,678 # 1e444 <__preinit_array_end>
   101a6:	0000e917          	auipc	s2,0xe
   101aa:	29e90913          	addi	s2,s2,670 # 1e444 <__preinit_array_end>
   101ae:	40890933          	sub	s2,s2,s0
   101b2:	ec06                	sd	ra,24(sp)
   101b4:	e426                	sd	s1,8(sp)
   101b6:	40395913          	srai	s2,s2,0x3
   101ba:	00090963          	beqz	s2,101cc <__libc_init_array+0x34>
   101be:	4481                	li	s1,0
   101c0:	601c                	ld	a5,0(s0)
   101c2:	0485                	addi	s1,s1,1
   101c4:	0421                	addi	s0,s0,8
   101c6:	9782                	jalr	a5
   101c8:	fe991ce3          	bne	s2,s1,101c0 <__libc_init_array+0x28>
   101cc:	0000e417          	auipc	s0,0xe
   101d0:	27c40413          	addi	s0,s0,636 # 1e448 <__init_array_start>
   101d4:	0000e917          	auipc	s2,0xe
   101d8:	28490913          	addi	s2,s2,644 # 1e458 <__do_global_dtors_aux_fini_array_entry>
   101dc:	40890933          	sub	s2,s2,s0
   101e0:	40395913          	srai	s2,s2,0x3
   101e4:	00090963          	beqz	s2,101f6 <__libc_init_array+0x5e>
   101e8:	4481                	li	s1,0
   101ea:	601c                	ld	a5,0(s0)
   101ec:	0485                	addi	s1,s1,1
   101ee:	0421                	addi	s0,s0,8
   101f0:	9782                	jalr	a5
   101f2:	fe991ce3          	bne	s2,s1,101ea <__libc_init_array+0x52>
   101f6:	60e2                	ld	ra,24(sp)
   101f8:	6442                	ld	s0,16(sp)
   101fa:	64a2                	ld	s1,8(sp)
   101fc:	6902                	ld	s2,0(sp)
   101fe:	6105                	addi	sp,sp,32
   10200:	8082                	ret

0000000000010202 <memset>:
   10202:	433d                	li	t1,15
   10204:	872a                	mv	a4,a0
   10206:	02c37163          	bgeu	t1,a2,10228 <memset+0x26>
   1020a:	00f77793          	andi	a5,a4,15
   1020e:	e3c1                	bnez	a5,1028e <memset+0x8c>
   10210:	e1bd                	bnez	a1,10276 <memset+0x74>
   10212:	ff067693          	andi	a3,a2,-16
   10216:	8a3d                	andi	a2,a2,15
   10218:	96ba                	add	a3,a3,a4
   1021a:	e30c                	sd	a1,0(a4)
   1021c:	e70c                	sd	a1,8(a4)
   1021e:	0741                	addi	a4,a4,16
   10220:	fed76de3          	bltu	a4,a3,1021a <memset+0x18>
   10224:	e211                	bnez	a2,10228 <memset+0x26>
   10226:	8082                	ret
   10228:	40c306b3          	sub	a3,t1,a2
   1022c:	068a                	slli	a3,a3,0x2
   1022e:	00000297          	auipc	t0,0x0
   10232:	9696                	add	a3,a3,t0
   10234:	00a68067          	jr	10(a3)
   10238:	00b70723          	sb	a1,14(a4)
   1023c:	00b706a3          	sb	a1,13(a4)
   10240:	00b70623          	sb	a1,12(a4)
   10244:	00b705a3          	sb	a1,11(a4)
   10248:	00b70523          	sb	a1,10(a4)
   1024c:	00b704a3          	sb	a1,9(a4)
   10250:	00b70423          	sb	a1,8(a4)
   10254:	00b703a3          	sb	a1,7(a4)
   10258:	00b70323          	sb	a1,6(a4)
   1025c:	00b702a3          	sb	a1,5(a4)
   10260:	00b70223          	sb	a1,4(a4)
   10264:	00b701a3          	sb	a1,3(a4)
   10268:	00b70123          	sb	a1,2(a4)
   1026c:	00b700a3          	sb	a1,1(a4)
   10270:	00b70023          	sb	a1,0(a4)
   10274:	8082                	ret
   10276:	0ff5f593          	zext.b	a1,a1
   1027a:	00859693          	slli	a3,a1,0x8
   1027e:	8dd5                	or	a1,a1,a3
   10280:	01059693          	slli	a3,a1,0x10
   10284:	8dd5                	or	a1,a1,a3
   10286:	02059693          	slli	a3,a1,0x20
   1028a:	8dd5                	or	a1,a1,a3
   1028c:	b759                	j	10212 <memset+0x10>
   1028e:	00279693          	slli	a3,a5,0x2
   10292:	00000297          	auipc	t0,0x0
   10296:	9696                	add	a3,a3,t0
   10298:	8286                	mv	t0,ra
   1029a:	fa2680e7          	jalr	-94(a3)
   1029e:	8096                	mv	ra,t0
   102a0:	17c1                	addi	a5,a5,-16
   102a2:	8f1d                	sub	a4,a4,a5
   102a4:	963e                	add	a2,a2,a5
   102a6:	f8c371e3          	bgeu	t1,a2,10228 <memset+0x26>
   102aa:	b79d                	j	10210 <memset+0xe>

00000000000102ac <_printf_r>:
   102ac:	715d                	addi	sp,sp,-80
   102ae:	f032                	sd	a2,32(sp)
   102b0:	f436                	sd	a3,40(sp)
   102b2:	f83a                	sd	a4,48(sp)
   102b4:	fc3e                	sd	a5,56(sp)
   102b6:	e0c2                	sd	a6,64(sp)
   102b8:	e4c6                	sd	a7,72(sp)
   102ba:	862e                	mv	a2,a1
   102bc:	690c                	ld	a1,16(a0)
   102be:	1014                	addi	a3,sp,32
   102c0:	ec06                	sd	ra,24(sp)
   102c2:	e436                	sd	a3,8(sp)
   102c4:	036000ef          	jal	ra,102fa <_vfprintf_r>
   102c8:	60e2                	ld	ra,24(sp)
   102ca:	6161                	addi	sp,sp,80
   102cc:	8082                	ret

00000000000102ce <printf>:
   102ce:	711d                	addi	sp,sp,-96
   102d0:	f832                	sd	a2,48(sp)
   102d2:	fc36                	sd	a3,56(sp)
   102d4:	7581b303          	ld	t1,1880(gp) # 1f5f0 <_impure_ptr>
   102d8:	f42e                	sd	a1,40(sp)
   102da:	e0ba                	sd	a4,64(sp)
   102dc:	e4be                	sd	a5,72(sp)
   102de:	e8c2                	sd	a6,80(sp)
   102e0:	ecc6                	sd	a7,88(sp)
   102e2:	01033583          	ld	a1,16(t1) # 1015c <main+0x6>
   102e6:	1034                	addi	a3,sp,40
   102e8:	862a                	mv	a2,a0
   102ea:	851a                	mv	a0,t1
   102ec:	ec06                	sd	ra,24(sp)
   102ee:	e436                	sd	a3,8(sp)
   102f0:	00a000ef          	jal	ra,102fa <_vfprintf_r>
   102f4:	60e2                	ld	ra,24(sp)
   102f6:	6125                	addi	sp,sp,96
   102f8:	8082                	ret

00000000000102fa <_vfprintf_r>:
   102fa:	d8010113          	addi	sp,sp,-640
   102fe:	26113c23          	sd	ra,632(sp)
   10302:	25313c23          	sd	s3,600(sp)
   10306:	25513423          	sd	s5,584(sp)
   1030a:	23913423          	sd	s9,552(sp)
   1030e:	89ae                	mv	s3,a1
   10310:	8cb2                	mv	s9,a2
   10312:	e836                	sd	a3,16(sp)
   10314:	26813823          	sd	s0,624(sp)
   10318:	26913423          	sd	s1,616(sp)
   1031c:	27213023          	sd	s2,608(sp)
   10320:	25413823          	sd	s4,592(sp)
   10324:	25613023          	sd	s6,576(sp)
   10328:	23713c23          	sd	s7,568(sp)
   1032c:	23813823          	sd	s8,560(sp)
   10330:	23a13023          	sd	s10,544(sp)
   10334:	21b13c23          	sd	s11,536(sp)
   10338:	8aaa                	mv	s5,a0
   1033a:	7c4040ef          	jal	ra,14afe <_localeconv_r>
   1033e:	611c                	ld	a5,0(a0)
   10340:	853e                	mv	a0,a5
   10342:	fcbe                	sd	a5,120(sp)
   10344:	17a060ef          	jal	ra,164be <strlen>
   10348:	f8aa                	sd	a0,112(sp)
   1034a:	e202                	sd	zero,256(sp)
   1034c:	e602                	sd	zero,264(sp)
   1034e:	000a8663          	beqz	s5,1035a <_vfprintf_r+0x60>
   10352:	050aa783          	lw	a5,80(s5)
   10356:	72078f63          	beqz	a5,10a94 <_vfprintf_r+0x79a>
   1035a:	01099703          	lh	a4,16(s3)
   1035e:	6689                	lui	a3,0x2
   10360:	03071793          	slli	a5,a4,0x30
   10364:	93c1                	srli	a5,a5,0x30
   10366:	00d7f633          	and	a2,a5,a3
   1036a:	e215                	bnez	a2,1038e <_vfprintf_r+0x94>
   1036c:	0ac9a603          	lw	a2,172(s3)
   10370:	00d767b3          	or	a5,a4,a3
   10374:	0107979b          	slliw	a5,a5,0x10
   10378:	7779                	lui	a4,0xffffe
   1037a:	4107d79b          	sraiw	a5,a5,0x10
   1037e:	177d                	addi	a4,a4,-1
   10380:	8f71                	and	a4,a4,a2
   10382:	00f99823          	sh	a5,16(s3)
   10386:	17c2                	slli	a5,a5,0x30
   10388:	0ae9a623          	sw	a4,172(s3)
   1038c:	93c1                	srli	a5,a5,0x30
   1038e:	0087f713          	andi	a4,a5,8
   10392:	26070563          	beqz	a4,105fc <_vfprintf_r+0x302>
   10396:	0189b703          	ld	a4,24(s3)
   1039a:	26070163          	beqz	a4,105fc <_vfprintf_r+0x302>
   1039e:	8be9                	andi	a5,a5,26
   103a0:	4729                	li	a4,10
   103a2:	26e78a63          	beq	a5,a4,10616 <_vfprintf_r+0x31c>
   103a6:	000cc783          	lbu	a5,0(s9)
   103aa:	19010b93          	addi	s7,sp,400
   103ae:	ea5e                	sd	s7,272(sp)
   103b0:	f202                	sd	zero,288(sp)
   103b2:	10012c23          	sw	zero,280(sp)
   103b6:	f002                	sd	zero,32(sp)
   103b8:	f402                	sd	zero,40(sp)
   103ba:	e102                	sd	zero,128(sp)
   103bc:	f482                	sd	zero,104(sp)
   103be:	e502                	sd	zero,136(sp)
   103c0:	e902                	sd	zero,144(sp)
   103c2:	e002                	sd	zero,0(sp)
   103c4:	835e                	mv	t1,s7
   103c6:	4d41                	li	s10,16
   103c8:	0000c917          	auipc	s2,0xc
   103cc:	46090913          	addi	s2,s2,1120 # 1c828 <zeroes.0>
   103d0:	1c078763          	beqz	a5,1059e <_vfprintf_r+0x2a4>
   103d4:	8466                	mv	s0,s9
   103d6:	02500713          	li	a4,37
   103da:	30e78563          	beq	a5,a4,106e4 <_vfprintf_r+0x3ea>
   103de:	00144783          	lbu	a5,1(s0)
   103e2:	0405                	addi	s0,s0,1
   103e4:	fbfd                	bnez	a5,103da <_vfprintf_r+0xe0>
   103e6:	419404bb          	subw	s1,s0,s9
   103ea:	1a048a63          	beqz	s1,1059e <_vfprintf_r+0x2a4>
   103ee:	7712                	ld	a4,288(sp)
   103f0:	11812783          	lw	a5,280(sp)
   103f4:	01933023          	sd	s9,0(t1)
   103f8:	9726                	add	a4,a4,s1
   103fa:	2785                	addiw	a5,a5,1
   103fc:	00933423          	sd	s1,8(t1)
   10400:	f23a                	sd	a4,288(sp)
   10402:	10f12c23          	sw	a5,280(sp)
   10406:	0007871b          	sext.w	a4,a5
   1040a:	479d                	li	a5,7
   1040c:	0341                	addi	t1,t1,16
   1040e:	2ee7c263          	blt	a5,a4,106f2 <_vfprintf_r+0x3f8>
   10412:	6702                	ld	a4,0(sp)
   10414:	00044783          	lbu	a5,0(s0)
   10418:	9f25                	addw	a4,a4,s1
   1041a:	e03a                	sd	a4,0(sp)
   1041c:	18078163          	beqz	a5,1059e <_vfprintf_r+0x2a4>
   10420:	00144e83          	lbu	t4,1(s0)
   10424:	0c010fa3          	sb	zero,223(sp)
   10428:	0405                	addi	s0,s0,1
   1042a:	5f7d                	li	t5,-1
   1042c:	4b01                	li	s6,0
   1042e:	4481                	li	s1,0
   10430:	4a25                	li	s4,9
   10432:	02a00c13          	li	s8,42
   10436:	0405                	addi	s0,s0,1
   10438:	000e8d9b          	sext.w	s11,t4
   1043c:	05a00613          	li	a2,90
   10440:	fe0d879b          	addiw	a5,s11,-32
   10444:	0007871b          	sext.w	a4,a5
   10448:	04e66863          	bltu	a2,a4,10498 <_vfprintf_r+0x19e>
   1044c:	02079713          	slli	a4,a5,0x20
   10450:	01e75793          	srli	a5,a4,0x1e
   10454:	0000c717          	auipc	a4,0xc
   10458:	25470713          	addi	a4,a4,596 # 1c6a8 <__clzdi2+0xda>
   1045c:	97ba                	add	a5,a5,a4
   1045e:	439c                	lw	a5,0(a5)
   10460:	97ba                	add	a5,a5,a4
   10462:	8782                	jr	a5
   10464:	4b01                	li	s6,0
   10466:	00044703          	lbu	a4,0(s0)
   1046a:	002b179b          	slliw	a5,s6,0x2
   1046e:	01678b3b          	addw	s6,a5,s6
   10472:	fd0d8e9b          	addiw	t4,s11,-48
   10476:	001b1b1b          	slliw	s6,s6,0x1
   1047a:	fd07079b          	addiw	a5,a4,-48
   1047e:	0405                	addi	s0,s0,1
   10480:	016e8b3b          	addw	s6,t4,s6
   10484:	00070d9b          	sext.w	s11,a4
   10488:	fcfa7fe3          	bgeu	s4,a5,10466 <_vfprintf_r+0x16c>
   1048c:	fe0d879b          	addiw	a5,s11,-32
   10490:	0007871b          	sext.w	a4,a5
   10494:	fae67ce3          	bgeu	a2,a4,1044c <_vfprintf_r+0x152>
   10498:	100d8363          	beqz	s11,1059e <_vfprintf_r+0x2a4>
   1049c:	13b10423          	sb	s11,296(sp)
   104a0:	0c010fa3          	sb	zero,223(sp)
   104a4:	4a05                	li	s4,1
   104a6:	4c05                	li	s8,1
   104a8:	12810c93          	addi	s9,sp,296
   104ac:	ec02                	sd	zero,24(sp)
   104ae:	4f01                	li	t5,0
   104b0:	e882                	sd	zero,80(sp)
   104b2:	f082                	sd	zero,96(sp)
   104b4:	ec82                	sd	zero,88(sp)
   104b6:	0024f293          	andi	t0,s1,2
   104ba:	00028363          	beqz	t0,104c0 <_vfprintf_r+0x1c6>
   104be:	2a09                	addiw	s4,s4,2
   104c0:	0844ff93          	andi	t6,s1,132
   104c4:	7792                	ld	a5,288(sp)
   104c6:	000f9663          	bnez	t6,104d2 <_vfprintf_r+0x1d8>
   104ca:	414b06bb          	subw	a3,s6,s4
   104ce:	22d04ee3          	bgtz	a3,10f0a <_vfprintf_r+0xc10>
   104d2:	0df14703          	lbu	a4,223(sp)
   104d6:	c70d                	beqz	a4,10500 <_vfprintf_r+0x206>
   104d8:	11812703          	lw	a4,280(sp)
   104dc:	0df10693          	addi	a3,sp,223
   104e0:	00d33023          	sd	a3,0(t1)
   104e4:	2705                	addiw	a4,a4,1
   104e6:	4685                	li	a3,1
   104e8:	0785                	addi	a5,a5,1
   104ea:	00d33423          	sd	a3,8(t1)
   104ee:	10e12c23          	sw	a4,280(sp)
   104f2:	0007069b          	sext.w	a3,a4
   104f6:	f23e                	sd	a5,288(sp)
   104f8:	471d                	li	a4,7
   104fa:	0341                	addi	t1,t1,16
   104fc:	40d74463          	blt	a4,a3,10904 <_vfprintf_r+0x60a>
   10500:	02028563          	beqz	t0,1052a <_vfprintf_r+0x230>
   10504:	11812703          	lw	a4,280(sp)
   10508:	1194                	addi	a3,sp,224
   1050a:	00d33023          	sd	a3,0(t1)
   1050e:	2705                	addiw	a4,a4,1
   10510:	4689                	li	a3,2
   10512:	0789                	addi	a5,a5,2
   10514:	00d33423          	sd	a3,8(t1)
   10518:	10e12c23          	sw	a4,280(sp)
   1051c:	0007069b          	sext.w	a3,a4
   10520:	f23e                	sd	a5,288(sp)
   10522:	471d                	li	a4,7
   10524:	0341                	addi	t1,t1,16
   10526:	28d742e3          	blt	a4,a3,10faa <_vfprintf_r+0xcb0>
   1052a:	08000713          	li	a4,128
   1052e:	08ef8ae3          	beq	t6,a4,10dc2 <_vfprintf_r+0xac8>
   10532:	418f0f3b          	subw	t5,t5,s8
   10536:	11e04ce3          	bgtz	t5,10e4e <_vfprintf_r+0xb54>
   1053a:	1004f713          	andi	a4,s1,256
   1053e:	7a071f63          	bnez	a4,10cfc <_vfprintf_r+0xa02>
   10542:	11812703          	lw	a4,280(sp)
   10546:	97e2                	add	a5,a5,s8
   10548:	01933023          	sd	s9,0(t1)
   1054c:	0017069b          	addiw	a3,a4,1
   10550:	8736                	mv	a4,a3
   10552:	01833423          	sd	s8,8(t1)
   10556:	10e12c23          	sw	a4,280(sp)
   1055a:	f23e                	sd	a5,288(sp)
   1055c:	471d                	li	a4,7
   1055e:	48d74363          	blt	a4,a3,109e4 <_vfprintf_r+0x6ea>
   10562:	0341                	addi	t1,t1,16
   10564:	8891                	andi	s1,s1,4
   10566:	c489                	beqz	s1,10570 <_vfprintf_r+0x276>
   10568:	414b04bb          	subw	s1,s6,s4
   1056c:	24904de3          	bgtz	s1,10fc6 <_vfprintf_r+0xccc>
   10570:	875a                	mv	a4,s6
   10572:	014b5363          	bge	s6,s4,10578 <_vfprintf_r+0x27e>
   10576:	8752                	mv	a4,s4
   10578:	6682                	ld	a3,0(sp)
   1057a:	9f35                	addw	a4,a4,a3
   1057c:	e03a                	sd	a4,0(sp)
   1057e:	140795e3          	bnez	a5,10ec8 <_vfprintf_r+0xbce>
   10582:	67e2                	ld	a5,24(sp)
   10584:	10012c23          	sw	zero,280(sp)
   10588:	c789                	beqz	a5,10592 <_vfprintf_r+0x298>
   1058a:	65e2                	ld	a1,24(sp)
   1058c:	8556                	mv	a0,s5
   1058e:	14e020ef          	jal	ra,126dc <_free_r>
   10592:	835e                	mv	t1,s7
   10594:	8ca2                	mv	s9,s0
   10596:	000cc783          	lbu	a5,0(s9)
   1059a:	e2079de3          	bnez	a5,103d4 <_vfprintf_r+0xda>
   1059e:	7792                	ld	a5,288(sp)
   105a0:	c399                	beqz	a5,105a6 <_vfprintf_r+0x2ac>
   105a2:	28c0106f          	j	1182e <_vfprintf_r+0x1534>
   105a6:	0109d783          	lhu	a5,16(s3)
   105aa:	0407f793          	andi	a5,a5,64
   105ae:	c399                	beqz	a5,105b4 <_vfprintf_r+0x2ba>
   105b0:	6340106f          	j	11be4 <_vfprintf_r+0x18ea>
   105b4:	27813083          	ld	ra,632(sp)
   105b8:	27013403          	ld	s0,624(sp)
   105bc:	6502                	ld	a0,0(sp)
   105be:	26813483          	ld	s1,616(sp)
   105c2:	26013903          	ld	s2,608(sp)
   105c6:	25813983          	ld	s3,600(sp)
   105ca:	25013a03          	ld	s4,592(sp)
   105ce:	24813a83          	ld	s5,584(sp)
   105d2:	24013b03          	ld	s6,576(sp)
   105d6:	23813b83          	ld	s7,568(sp)
   105da:	23013c03          	ld	s8,560(sp)
   105de:	22813c83          	ld	s9,552(sp)
   105e2:	22013d03          	ld	s10,544(sp)
   105e6:	21813d83          	ld	s11,536(sp)
   105ea:	28010113          	addi	sp,sp,640
   105ee:	8082                	ret
   105f0:	0104e493          	ori	s1,s1,16
   105f4:	00044e83          	lbu	t4,0(s0)
   105f8:	2481                	sext.w	s1,s1
   105fa:	bd35                	j	10436 <_vfprintf_r+0x13c>
   105fc:	85ce                	mv	a1,s3
   105fe:	8556                	mv	a0,s5
   10600:	16b010ef          	jal	ra,11f6a <__swsetup_r>
   10604:	c119                	beqz	a0,1060a <_vfprintf_r+0x310>
   10606:	5de0106f          	j	11be4 <_vfprintf_r+0x18ea>
   1060a:	0109d783          	lhu	a5,16(s3)
   1060e:	4729                	li	a4,10
   10610:	8be9                	andi	a5,a5,26
   10612:	d8e79ae3          	bne	a5,a4,103a6 <_vfprintf_r+0xac>
   10616:	01299783          	lh	a5,18(s3)
   1061a:	d807c6e3          	bltz	a5,103a6 <_vfprintf_r+0xac>
   1061e:	66c2                	ld	a3,16(sp)
   10620:	8666                	mv	a2,s9
   10622:	85ce                	mv	a1,s3
   10624:	8556                	mv	a0,s5
   10626:	0b1010ef          	jal	ra,11ed6 <__sbprintf>
   1062a:	e02a                	sd	a0,0(sp)
   1062c:	b761                	j	105b4 <_vfprintf_r+0x2ba>
   1062e:	0104e493          	ori	s1,s1,16
   10632:	2481                	sext.w	s1,s1
   10634:	66c2                	ld	a3,16(sp)
   10636:	0204f793          	andi	a5,s1,32
   1063a:	00868713          	addi	a4,a3,8 # 2008 <done+0x1fc8>
   1063e:	3c078c63          	beqz	a5,10a16 <_vfprintf_r+0x71c>
   10642:	629c                	ld	a5,0(a3)
   10644:	8a3e                	mv	s4,a5
   10646:	3e07c663          	bltz	a5,10a32 <_vfprintf_r+0x738>
   1064a:	57fd                	li	a5,-1
   1064c:	3eff0de3          	beq	t5,a5,11246 <_vfprintf_r+0xf4c>
   10650:	f7f4f493          	andi	s1,s1,-129
   10654:	e83a                	sd	a4,16(sp)
   10656:	0004881b          	sext.w	a6,s1
   1065a:	080a1be3          	bnez	s4,10ef0 <_vfprintf_r+0xbf6>
   1065e:	080f1ce3          	bnez	t5,10ef6 <_vfprintf_r+0xbfc>
   10662:	84c2                	mv	s1,a6
   10664:	4f01                	li	t5,0
   10666:	4c01                	li	s8,0
   10668:	18c10c93          	addi	s9,sp,396
   1066c:	0df14783          	lbu	a5,223(sp)
   10670:	000c0a1b          	sext.w	s4,s8
   10674:	01ec5463          	bge	s8,t5,1067c <_vfprintf_r+0x382>
   10678:	000f0a1b          	sext.w	s4,t5
   1067c:	ec02                	sd	zero,24(sp)
   1067e:	e882                	sd	zero,80(sp)
   10680:	f082                	sd	zero,96(sp)
   10682:	ec82                	sd	zero,88(sp)
   10684:	e20789e3          	beqz	a5,104b6 <_vfprintf_r+0x1bc>
   10688:	2a05                	addiw	s4,s4,1
   1068a:	b535                	j	104b6 <_vfprintf_r+0x1bc>
   1068c:	0104e493          	ori	s1,s1,16
   10690:	2481                	sext.w	s1,s1
   10692:	66c2                	ld	a3,16(sp)
   10694:	0204f793          	andi	a5,s1,32
   10698:	00868713          	addi	a4,a3,8
   1069c:	34078e63          	beqz	a5,109f8 <_vfprintf_r+0x6fe>
   106a0:	0006ba03          	ld	s4,0(a3)
   106a4:	bff4f493          	andi	s1,s1,-1025
   106a8:	0004881b          	sext.w	a6,s1
   106ac:	e83a                	sd	a4,16(sp)
   106ae:	4781                	li	a5,0
   106b0:	0c010fa3          	sb	zero,223(sp)
   106b4:	577d                	li	a4,-1
   106b6:	38ef0a63          	beq	t5,a4,10a4a <_vfprintf_r+0x750>
   106ba:	f7f87493          	andi	s1,a6,-129
   106be:	2481                	sext.w	s1,s1
   106c0:	020a14e3          	bnez	s4,10ee8 <_vfprintf_r+0xbee>
   106c4:	5e0f1f63          	bnez	t5,10cc2 <_vfprintf_r+0x9c8>
   106c8:	ffd1                	bnez	a5,10664 <_vfprintf_r+0x36a>
   106ca:	00187c13          	andi	s8,a6,1
   106ce:	18c10c93          	addi	s9,sp,396
   106d2:	f80c0de3          	beqz	s8,1066c <_vfprintf_r+0x372>
   106d6:	03000793          	li	a5,48
   106da:	18f105a3          	sb	a5,395(sp)
   106de:	18b10c93          	addi	s9,sp,395
   106e2:	b769                	j	1066c <_vfprintf_r+0x372>
   106e4:	419404bb          	subw	s1,s0,s9
   106e8:	d00493e3          	bnez	s1,103ee <_vfprintf_r+0xf4>
   106ec:	00044783          	lbu	a5,0(s0)
   106f0:	b335                	j	1041c <_vfprintf_r+0x122>
   106f2:	0a10                	addi	a2,sp,272
   106f4:	85ce                	mv	a1,s3
   106f6:	8556                	mv	a0,s5
   106f8:	301070ef          	jal	ra,181f8 <__sprint_r>
   106fc:	ea0515e3          	bnez	a0,105a6 <_vfprintf_r+0x2ac>
   10700:	835e                	mv	t1,s7
   10702:	bb01                	j	10412 <_vfprintf_r+0x118>
   10704:	0084f793          	andi	a5,s1,8
   10708:	320794e3          	bnez	a5,11230 <_vfprintf_r+0xf36>
   1070c:	67c2                	ld	a5,16(sp)
   1070e:	ec1a                	sd	t1,24(sp)
   10710:	e47a                	sd	t5,8(sp)
   10712:	2388                	fld	fa0,0(a5)
   10714:	00878693          	addi	a3,a5,8
   10718:	e836                	sd	a3,16(sp)
   1071a:	3c70b0ef          	jal	ra,1c2e0 <__extenddftf2>
   1071e:	6362                	ld	t1,24(sp)
   10720:	6f22                	ld	t5,8(sp)
   10722:	e22a                	sd	a0,256(sp)
   10724:	e62e                	sd	a1,264(sp)
   10726:	0208                	addi	a0,sp,256
   10728:	ec1a                	sd	t1,24(sp)
   1072a:	e47a                	sd	t5,8(sp)
   1072c:	38a040ef          	jal	ra,14ab6 <_ldcheck>
   10730:	d5aa                	sw	a0,232(sp)
   10732:	4789                	li	a5,2
   10734:	6f22                	ld	t5,8(sp)
   10736:	6362                	ld	t1,24(sp)
   10738:	5af507e3          	beq	a0,a5,114e6 <_vfprintf_r+0x11ec>
   1073c:	4785                	li	a5,1
   1073e:	6af50ae3          	beq	a0,a5,115f2 <_vfprintf_r+0x12f8>
   10742:	06100793          	li	a5,97
   10746:	00fd9463          	bne	s11,a5,1074e <_vfprintf_r+0x454>
   1074a:	5220106f          	j	11c6c <_vfprintf_r+0x1972>
   1074e:	04100793          	li	a5,65
   10752:	00fd9463          	bne	s11,a5,1075a <_vfprintf_r+0x460>
   10756:	10a0106f          	j	11860 <_vfprintf_r+0x1566>
   1075a:	fdfdf713          	andi	a4,s11,-33
   1075e:	57fd                	li	a5,-1
   10760:	f0ba                	sd	a4,96(sp)
   10762:	00ff1463          	bne	t5,a5,1076a <_vfprintf_r+0x470>
   10766:	5c00106f          	j	11d26 <_vfprintf_r+0x1a2c>
   1076a:	04700793          	li	a5,71
   1076e:	00f71463          	bne	a4,a5,10776 <_vfprintf_r+0x47c>
   10772:	5a60106f          	j	11d18 <_vfprintf_r+0x1a1e>
   10776:	6a32                	ld	s4,264(sp)
   10778:	1004e793          	ori	a5,s1,256
   1077c:	f526                	sd	s1,168(sp)
   1077e:	6c12                	ld	s8,256(sp)
   10780:	2781                	sext.w	a5,a5
   10782:	000a5463          	bgez	s4,1078a <_vfprintf_r+0x490>
   10786:	2f40106f          	j	11a7a <_vfprintf_r+0x1780>
   1078a:	e582                	sd	zero,200(sp)
   1078c:	84be                	mv	s1,a5
   1078e:	ec02                	sd	zero,24(sp)
   10790:	7706                	ld	a4,96(sp)
   10792:	04600793          	li	a5,70
   10796:	00f71463          	bne	a4,a5,1079e <_vfprintf_r+0x4a4>
   1079a:	3320106f          	j	11acc <_vfprintf_r+0x17d2>
   1079e:	04500793          	li	a5,69
   107a2:	00f71463          	bne	a4,a5,107aa <_vfprintf_r+0x4b0>
   107a6:	4d40106f          	j	11c7a <_vfprintf_r+0x1980>
   107aa:	877a                	mv	a4,t5
   107ac:	11bc                	addi	a5,sp,232
   107ae:	0f810893          	addi	a7,sp,248
   107b2:	0ec10813          	addi	a6,sp,236
   107b6:	4689                	li	a3,2
   107b8:	85e2                	mv	a1,s8
   107ba:	8652                	mv	a2,s4
   107bc:	8556                	mv	a0,s5
   107be:	f01a                	sd	t1,32(sp)
   107c0:	e47a                	sd	t5,8(sp)
   107c2:	4e4030ef          	jal	ra,13ca6 <_ldtoa_r>
   107c6:	7706                	ld	a4,96(sp)
   107c8:	04700793          	li	a5,71
   107cc:	6f22                	ld	t5,8(sp)
   107ce:	7302                	ld	t1,32(sp)
   107d0:	8caa                	mv	s9,a0
   107d2:	00f70463          	beq	a4,a5,107da <_vfprintf_r+0x4e0>
   107d6:	6ec0106f          	j	11ec2 <_vfprintf_r+0x1bc8>
   107da:	77aa                	ld	a5,168(sp)
   107dc:	8b85                	andi	a5,a5,1
   107de:	c399                	beqz	a5,107e4 <_vfprintf_r+0x4ea>
   107e0:	4800106f          	j	11c60 <_vfprintf_r+0x1966>
   107e4:	77ee                	ld	a5,248(sp)
   107e6:	419787bb          	subw	a5,a5,s9
   107ea:	f03e                	sd	a5,32(sp)
   107ec:	572e                	lw	a4,232(sp)
   107ee:	04700793          	li	a5,71
   107f2:	ecba                	sd	a4,88(sp)
   107f4:	7706                	ld	a4,96(sp)
   107f6:	00f71463          	bne	a4,a5,107fe <_vfprintf_r+0x504>
   107fa:	21a0106f          	j	11a14 <_vfprintf_r+0x171a>
   107fe:	7706                	ld	a4,96(sp)
   10800:	04600793          	li	a5,70
   10804:	00f71463          	bne	a4,a5,1080c <_vfprintf_r+0x512>
   10808:	3a40106f          	j	11bac <_vfprintf_r+0x18b2>
   1080c:	67e6                	ld	a5,88(sp)
   1080e:	7586                	ld	a1,96(sp)
   10810:	04100613          	li	a2,65
   10814:	37fd                	addiw	a5,a5,-1
   10816:	d5be                	sw	a5,232(sp)
   10818:	0ffdf713          	zext.b	a4,s11
   1081c:	4681                	li	a3,0
   1081e:	00c59663          	bne	a1,a2,1082a <_vfprintf_r+0x530>
   10822:	273d                	addiw	a4,a4,15
   10824:	0ff77713          	zext.b	a4,a4
   10828:	4685                	li	a3,1
   1082a:	0ee10823          	sb	a4,240(sp)
   1082e:	02b00713          	li	a4,43
   10832:	0007d763          	bgez	a5,10840 <_vfprintf_r+0x546>
   10836:	6766                	ld	a4,88(sp)
   10838:	4785                	li	a5,1
   1083a:	9f99                	subw	a5,a5,a4
   1083c:	02d00713          	li	a4,45
   10840:	0ee108a3          	sb	a4,241(sp)
   10844:	4725                	li	a4,9
   10846:	00f74463          	blt	a4,a5,1084e <_vfprintf_r+0x554>
   1084a:	5b60106f          	j	11e00 <_vfprintf_r+0x1b06>
   1084e:	0ff10513          	addi	a0,sp,255
   10852:	88aa                	mv	a7,a0
   10854:	46a9                	li	a3,10
   10856:	06300f13          	li	t5,99
   1085a:	02d7e73b          	remw	a4,a5,a3
   1085e:	85c6                	mv	a1,a7
   10860:	863e                	mv	a2,a5
   10862:	18fd                	addi	a7,a7,-1
   10864:	0307071b          	addiw	a4,a4,48
   10868:	fee58fa3          	sb	a4,-1(a1)
   1086c:	02d7c7bb          	divw	a5,a5,a3
   10870:	fecf45e3          	blt	t5,a2,1085a <_vfprintf_r+0x560>
   10874:	0307879b          	addiw	a5,a5,48
   10878:	0ff7f693          	zext.b	a3,a5
   1087c:	fed88fa3          	sb	a3,-1(a7)
   10880:	ffe58793          	addi	a5,a1,-2
   10884:	00a7e463          	bltu	a5,a0,1088c <_vfprintf_r+0x592>
   10888:	6220106f          	j	11eaa <_vfprintf_r+0x1bb0>
   1088c:	0f210713          	addi	a4,sp,242
   10890:	a019                	j	10896 <_vfprintf_r+0x59c>
   10892:	0007c683          	lbu	a3,0(a5)
   10896:	00d70023          	sb	a3,0(a4)
   1089a:	0785                	addi	a5,a5,1
   1089c:	0705                	addi	a4,a4,1
   1089e:	fea79ae3          	bne	a5,a0,10892 <_vfprintf_r+0x598>
   108a2:	10110793          	addi	a5,sp,257
   108a6:	0f210713          	addi	a4,sp,242
   108aa:	8f8d                	sub	a5,a5,a1
   108ac:	97ba                	add	a5,a5,a4
   108ae:	1998                	addi	a4,sp,240
   108b0:	9f99                	subw	a5,a5,a4
   108b2:	e13e                	sd	a5,128(sp)
   108b4:	678a                	ld	a5,128(sp)
   108b6:	7682                	ld	a3,32(sp)
   108b8:	4705                	li	a4,1
   108ba:	00f68c3b          	addw	s8,a3,a5
   108be:	87e2                	mv	a5,s8
   108c0:	00d74463          	blt	a4,a3,108c8 <_vfprintf_r+0x5ce>
   108c4:	5660106f          	j	11e2a <_vfprintf_r+0x1b30>
   108c8:	7746                	ld	a4,112(sp)
   108ca:	00e78c3b          	addw	s8,a5,a4
   108ce:	77aa                	ld	a5,168(sp)
   108d0:	fffc4a13          	not	s4,s8
   108d4:	43fa5a13          	srai	s4,s4,0x3f
   108d8:	bff7f493          	andi	s1,a5,-1025
   108dc:	2481                	sext.w	s1,s1
   108de:	014c7a33          	and	s4,s8,s4
   108e2:	1004e493          	ori	s1,s1,256
   108e6:	2a01                	sext.w	s4,s4
   108e8:	e882                	sd	zero,80(sp)
   108ea:	f082                	sd	zero,96(sp)
   108ec:	ec82                	sd	zero,88(sp)
   108ee:	67ae                	ld	a5,200(sp)
   108f0:	e399                	bnez	a5,108f6 <_vfprintf_r+0x5fc>
   108f2:	1780106f          	j	11a6a <_vfprintf_r+0x1770>
   108f6:	02d00793          	li	a5,45
   108fa:	0cf10fa3          	sb	a5,223(sp)
   108fe:	4f01                	li	t5,0
   10900:	2a05                	addiw	s4,s4,1
   10902:	be55                	j	104b6 <_vfprintf_r+0x1bc>
   10904:	0a10                	addi	a2,sp,272
   10906:	85ce                	mv	a1,s3
   10908:	8556                	mv	a0,s5
   1090a:	fc7a                	sd	t5,56(sp)
   1090c:	f87e                	sd	t6,48(sp)
   1090e:	e416                	sd	t0,8(sp)
   10910:	0e9070ef          	jal	ra,181f8 <__sprint_r>
   10914:	5c051163          	bnez	a0,10ed6 <_vfprintf_r+0xbdc>
   10918:	7792                	ld	a5,288(sp)
   1091a:	7f62                	ld	t5,56(sp)
   1091c:	7fc2                	ld	t6,48(sp)
   1091e:	62a2                	ld	t0,8(sp)
   10920:	835e                	mv	t1,s7
   10922:	bef9                	j	10500 <_vfprintf_r+0x206>
   10924:	11812603          	lw	a2,280(sp)
   10928:	00178d93          	addi	s11,a5,1
   1092c:	7782                	ld	a5,32(sp)
   1092e:	0016071b          	addiw	a4,a2,1
   10932:	4585                	li	a1,1
   10934:	01933023          	sd	s9,0(t1)
   10938:	86ba                	mv	a3,a4
   1093a:	01030c13          	addi	s8,t1,16
   1093e:	02f5d6e3          	bge	a1,a5,1116a <_vfprintf_r+0xe70>
   10942:	4605                	li	a2,1
   10944:	10d12c23          	sw	a3,280(sp)
   10948:	00c33423          	sd	a2,8(t1)
   1094c:	f26e                	sd	s11,288(sp)
   1094e:	469d                	li	a3,7
   10950:	2ce6c3e3          	blt	a3,a4,11416 <_vfprintf_r+0x111c>
   10954:	77c6                	ld	a5,112(sp)
   10956:	0017069b          	addiw	a3,a4,1
   1095a:	7766                	ld	a4,120(sp)
   1095c:	9dbe                	add	s11,s11,a5
   1095e:	00fc3423          	sd	a5,8(s8)
   10962:	00ec3023          	sd	a4,0(s8)
   10966:	10d12c23          	sw	a3,280(sp)
   1096a:	0006871b          	sext.w	a4,a3
   1096e:	f26e                	sd	s11,288(sp)
   10970:	469d                	li	a3,7
   10972:	0c41                	addi	s8,s8,16
   10974:	2ae6cee3          	blt	a3,a4,11430 <_vfprintf_r+0x1136>
   10978:	6512                	ld	a0,256(sp)
   1097a:	65b2                	ld	a1,264(sp)
   1097c:	0017089b          	addiw	a7,a4,1
   10980:	4601                	li	a2,0
   10982:	4681                	li	a3,0
   10984:	c446                	sw	a7,8(sp)
   10986:	f83a                	sd	a4,48(sp)
   10988:	05f0a0ef          	jal	ra,1b1e6 <__eqtf2>
   1098c:	48a2                	lw	a7,8(sp)
   1098e:	7782                	ld	a5,32(sp)
   10990:	010c0313          	addi	t1,s8,16
   10994:	0008861b          	sext.w	a2,a7
   10998:	fff7869b          	addiw	a3,a5,-1
   1099c:	7e050863          	beqz	a0,1118c <_vfprintf_r+0xe92>
   109a0:	9db6                	add	s11,s11,a3
   109a2:	001c8813          	addi	a6,s9,1
   109a6:	00dc3423          	sd	a3,8(s8)
   109aa:	010c3023          	sd	a6,0(s8)
   109ae:	f26e                	sd	s11,288(sp)
   109b0:	11112c23          	sw	a7,280(sp)
   109b4:	469d                	li	a3,7
   109b6:	14c6c5e3          	blt	a3,a2,11300 <_vfprintf_r+0x1006>
   109ba:	7742                	ld	a4,48(sp)
   109bc:	020c0693          	addi	a3,s8,32
   109c0:	8c1a                	mv	s8,t1
   109c2:	0027061b          	addiw	a2,a4,2
   109c6:	8336                	mv	t1,a3
   109c8:	668a                	ld	a3,128(sp)
   109ca:	1998                	addi	a4,sp,240
   109cc:	00ec3023          	sd	a4,0(s8)
   109d0:	01b687b3          	add	a5,a3,s11
   109d4:	00dc3423          	sd	a3,8(s8)
   109d8:	f23e                	sd	a5,288(sp)
   109da:	10c12c23          	sw	a2,280(sp)
   109de:	471d                	li	a4,7
   109e0:	b8c752e3          	bge	a4,a2,10564 <_vfprintf_r+0x26a>
   109e4:	0a10                	addi	a2,sp,272
   109e6:	85ce                	mv	a1,s3
   109e8:	8556                	mv	a0,s5
   109ea:	00f070ef          	jal	ra,181f8 <__sprint_r>
   109ee:	4e051463          	bnez	a0,10ed6 <_vfprintf_r+0xbdc>
   109f2:	7792                	ld	a5,288(sp)
   109f4:	835e                	mv	t1,s7
   109f6:	b6bd                	j	10564 <_vfprintf_r+0x26a>
   109f8:	0104f793          	andi	a5,s1,16
   109fc:	020795e3          	bnez	a5,11226 <_vfprintf_r+0xf2c>
   10a00:	66c2                	ld	a3,16(sp)
   10a02:	0404f793          	andi	a5,s1,64
   10a06:	0006aa03          	lw	s4,0(a3)
   10a0a:	3c078ce3          	beqz	a5,115e2 <_vfprintf_r+0x12e8>
   10a0e:	1a42                	slli	s4,s4,0x30
   10a10:	030a5a13          	srli	s4,s4,0x30
   10a14:	b941                	j	106a4 <_vfprintf_r+0x3aa>
   10a16:	0104f793          	andi	a5,s1,16
   10a1a:	000791e3          	bnez	a5,1121c <_vfprintf_r+0xf22>
   10a1e:	0404f793          	andi	a5,s1,64
   10a22:	38078fe3          	beqz	a5,115c0 <_vfprintf_r+0x12c6>
   10a26:	67c2                	ld	a5,16(sp)
   10a28:	00079a03          	lh	s4,0(a5)
   10a2c:	87d2                	mv	a5,s4
   10a2e:	c007dee3          	bgez	a5,1064a <_vfprintf_r+0x350>
   10a32:	02d00793          	li	a5,45
   10a36:	0cf10fa3          	sb	a5,223(sp)
   10a3a:	e83a                	sd	a4,16(sp)
   10a3c:	577d                	li	a4,-1
   10a3e:	41400a33          	neg	s4,s4
   10a42:	8826                	mv	a6,s1
   10a44:	4785                	li	a5,1
   10a46:	c6ef1ae3          	bne	t5,a4,106ba <_vfprintf_r+0x3c0>
   10a4a:	4705                	li	a4,1
   10a4c:	4ae78263          	beq	a5,a4,10ef0 <_vfprintf_r+0xbf6>
   10a50:	4709                	li	a4,2
   10a52:	28e78163          	beq	a5,a4,10cd4 <_vfprintf_r+0x9da>
   10a56:	18c10c13          	addi	s8,sp,396
   10a5a:	8ce2                	mv	s9,s8
   10a5c:	007a7793          	andi	a5,s4,7
   10a60:	03078793          	addi	a5,a5,48
   10a64:	fefc8fa3          	sb	a5,-1(s9)
   10a68:	003a5a13          	srli	s4,s4,0x3
   10a6c:	8766                	mv	a4,s9
   10a6e:	1cfd                	addi	s9,s9,-1
   10a70:	fe0a16e3          	bnez	s4,10a5c <_vfprintf_r+0x762>
   10a74:	00187693          	andi	a3,a6,1
   10a78:	26068e63          	beqz	a3,10cf4 <_vfprintf_r+0x9fa>
   10a7c:	03000693          	li	a3,48
   10a80:	26d78a63          	beq	a5,a3,10cf4 <_vfprintf_r+0x9fa>
   10a84:	1779                	addi	a4,a4,-2
   10a86:	fedc8fa3          	sb	a3,-1(s9)
   10a8a:	40ec0c3b          	subw	s8,s8,a4
   10a8e:	84c2                	mv	s1,a6
   10a90:	8cba                	mv	s9,a4
   10a92:	bee9                	j	1066c <_vfprintf_r+0x372>
   10a94:	8556                	mv	a0,s5
   10a96:	30d010ef          	jal	ra,125a2 <__sinit>
   10a9a:	b0c1                	j	1035a <_vfprintf_r+0x60>
   10a9c:	67c2                	ld	a5,16(sp)
   10a9e:	0c010fa3          	sb	zero,223(sp)
   10aa2:	0007bc83          	ld	s9,0(a5)
   10aa6:	00878693          	addi	a3,a5,8
   10aaa:	100c81e3          	beqz	s9,113ac <_vfprintf_r+0x10b2>
   10aae:	57fd                	li	a5,-1
   10ab0:	2cff05e3          	beq	t5,a5,1157a <_vfprintf_r+0x1280>
   10ab4:	867a                	mv	a2,t5
   10ab6:	4581                	li	a1,0
   10ab8:	8566                	mv	a0,s9
   10aba:	f836                	sd	a3,48(sp)
   10abc:	e81a                	sd	t1,16(sp)
   10abe:	e47a                	sd	t5,8(sp)
   10ac0:	105040ef          	jal	ra,153c4 <memchr>
   10ac4:	ec2a                	sd	a0,24(sp)
   10ac6:	6f22                	ld	t5,8(sp)
   10ac8:	6342                	ld	t1,16(sp)
   10aca:	76c2                	ld	a3,48(sp)
   10acc:	e119                	bnez	a0,10ad2 <_vfprintf_r+0x7d8>
   10ace:	0960106f          	j	11b64 <_vfprintf_r+0x186a>
   10ad2:	67e2                	ld	a5,24(sp)
   10ad4:	e836                	sd	a3,16(sp)
   10ad6:	ec02                	sd	zero,24(sp)
   10ad8:	41978c3b          	subw	s8,a5,s9
   10adc:	0df14783          	lbu	a5,223(sp)
   10ae0:	fffc4a13          	not	s4,s8
   10ae4:	43fa5a13          	srai	s4,s4,0x3f
   10ae8:	e882                	sd	zero,80(sp)
   10aea:	f082                	sd	zero,96(sp)
   10aec:	ec82                	sd	zero,88(sp)
   10aee:	018a7a33          	and	s4,s4,s8
   10af2:	4f01                	li	t5,0
   10af4:	b8079ae3          	bnez	a5,10688 <_vfprintf_r+0x38e>
   10af8:	ba7d                	j	104b6 <_vfprintf_r+0x1bc>
   10afa:	6742                	ld	a4,16(sp)
   10afc:	0c010fa3          	sb	zero,223(sp)
   10b00:	4a05                	li	s4,1
   10b02:	431c                	lw	a5,0(a4)
   10b04:	0721                	addi	a4,a4,8
   10b06:	e83a                	sd	a4,16(sp)
   10b08:	12f10423          	sb	a5,296(sp)
   10b0c:	4c05                	li	s8,1
   10b0e:	12810c93          	addi	s9,sp,296
   10b12:	ba69                	j	104ac <_vfprintf_r+0x1b2>
   10b14:	0084e493          	ori	s1,s1,8
   10b18:	00044e83          	lbu	t4,0(s0)
   10b1c:	2481                	sext.w	s1,s1
   10b1e:	ba21                	j	10436 <_vfprintf_r+0x13c>
   10b20:	0104e493          	ori	s1,s1,16
   10b24:	0004881b          	sext.w	a6,s1
   10b28:	66c2                	ld	a3,16(sp)
   10b2a:	02087793          	andi	a5,a6,32
   10b2e:	00868713          	addi	a4,a3,8
   10b32:	6a078363          	beqz	a5,111d8 <_vfprintf_r+0xede>
   10b36:	0006ba03          	ld	s4,0(a3)
   10b3a:	4785                	li	a5,1
   10b3c:	e83a                	sd	a4,16(sp)
   10b3e:	be8d                	j	106b0 <_vfprintf_r+0x3b6>
   10b40:	0204e493          	ori	s1,s1,32
   10b44:	00044e83          	lbu	t4,0(s0)
   10b48:	2481                	sext.w	s1,s1
   10b4a:	b0f5                	j	10436 <_vfprintf_r+0x13c>
   10b4c:	0804e493          	ori	s1,s1,128
   10b50:	00044e83          	lbu	t4,0(s0)
   10b54:	2481                	sext.w	s1,s1
   10b56:	b0c5                	j	10436 <_vfprintf_r+0x13c>
   10b58:	00044d83          	lbu	s11,0(s0)
   10b5c:	00140713          	addi	a4,s0,1
   10b60:	018d9463          	bne	s11,s8,10b68 <_vfprintf_r+0x86e>
   10b64:	3260106f          	j	11e8a <_vfprintf_r+0x1b90>
   10b68:	fd0d879b          	addiw	a5,s11,-48
   10b6c:	843a                	mv	s0,a4
   10b6e:	4f01                	li	t5,0
   10b70:	8cfa68e3          	bltu	s4,a5,10440 <_vfprintf_r+0x146>
   10b74:	00044d83          	lbu	s11,0(s0)
   10b78:	002f169b          	slliw	a3,t5,0x2
   10b7c:	01e686bb          	addw	a3,a3,t5
   10b80:	0016969b          	slliw	a3,a3,0x1
   10b84:	00f68f3b          	addw	t5,a3,a5
   10b88:	fd0d879b          	addiw	a5,s11,-48
   10b8c:	0405                	addi	s0,s0,1
   10b8e:	fefa73e3          	bgeu	s4,a5,10b74 <_vfprintf_r+0x87a>
   10b92:	b07d                	j	10440 <_vfprintf_r+0x146>
   10b94:	00044e83          	lbu	t4,0(s0)
   10b98:	0044e493          	ori	s1,s1,4
   10b9c:	2481                	sext.w	s1,s1
   10b9e:	b861                	j	10436 <_vfprintf_r+0x13c>
   10ba0:	02b00793          	li	a5,43
   10ba4:	00044e83          	lbu	t4,0(s0)
   10ba8:	0cf10fa3          	sb	a5,223(sp)
   10bac:	b069                	j	10436 <_vfprintf_r+0x13c>
   10bae:	67c2                	ld	a5,16(sp)
   10bb0:	00044e83          	lbu	t4,0(s0)
   10bb4:	0007ab03          	lw	s6,0(a5)
   10bb8:	07a1                	addi	a5,a5,8
   10bba:	e83e                	sd	a5,16(sp)
   10bbc:	860b5de3          	bgez	s6,10436 <_vfprintf_r+0x13c>
   10bc0:	41600b3b          	negw	s6,s6
   10bc4:	bfd1                	j	10b98 <_vfprintf_r+0x89e>
   10bc6:	8556                	mv	a0,s5
   10bc8:	ec1a                	sd	t1,24(sp)
   10bca:	e47a                	sd	t5,8(sp)
   10bcc:	733030ef          	jal	ra,14afe <_localeconv_r>
   10bd0:	651c                	ld	a5,8(a0)
   10bd2:	853e                	mv	a0,a5
   10bd4:	e93e                	sd	a5,144(sp)
   10bd6:	0e9050ef          	jal	ra,164be <strlen>
   10bda:	87aa                	mv	a5,a0
   10bdc:	8556                	mv	a0,s5
   10bde:	8dbe                	mv	s11,a5
   10be0:	e53e                	sd	a5,136(sp)
   10be2:	71d030ef          	jal	ra,14afe <_localeconv_r>
   10be6:	6918                	ld	a4,16(a0)
   10be8:	6f22                	ld	t5,8(sp)
   10bea:	6362                	ld	t1,24(sp)
   10bec:	f4ba                	sd	a4,104(sp)
   10bee:	00044e83          	lbu	t4,0(s0)
   10bf2:	840d82e3          	beqz	s11,10436 <_vfprintf_r+0x13c>
   10bf6:	840700e3          	beqz	a4,10436 <_vfprintf_r+0x13c>
   10bfa:	00074783          	lbu	a5,0(a4)
   10bfe:	82078ce3          	beqz	a5,10436 <_vfprintf_r+0x13c>
   10c02:	4004e493          	ori	s1,s1,1024
   10c06:	2481                	sext.w	s1,s1
   10c08:	82fff06f          	j	10436 <_vfprintf_r+0x13c>
   10c0c:	0014e493          	ori	s1,s1,1
   10c10:	00044e83          	lbu	t4,0(s0)
   10c14:	2481                	sext.w	s1,s1
   10c16:	821ff06f          	j	10436 <_vfprintf_r+0x13c>
   10c1a:	0df14783          	lbu	a5,223(sp)
   10c1e:	00044e83          	lbu	t4,0(s0)
   10c22:	80079ae3          	bnez	a5,10436 <_vfprintf_r+0x13c>
   10c26:	02000793          	li	a5,32
   10c2a:	0cf10fa3          	sb	a5,223(sp)
   10c2e:	809ff06f          	j	10436 <_vfprintf_r+0x13c>
   10c32:	6742                	ld	a4,16(sp)
   10c34:	77e1                	lui	a5,0xffff8
   10c36:	8307c793          	xori	a5,a5,-2000
   10c3a:	0ef11023          	sh	a5,224(sp)
   10c3e:	00870793          	addi	a5,a4,8
   10c42:	0024e493          	ori	s1,s1,2
   10c46:	e83e                	sd	a5,16(sp)
   10c48:	0000c797          	auipc	a5,0xc
   10c4c:	a3878793          	addi	a5,a5,-1480 # 1c680 <__clzdi2+0xb2>
   10c50:	f43e                	sd	a5,40(sp)
   10c52:	00073a03          	ld	s4,0(a4)
   10c56:	0004881b          	sext.w	a6,s1
   10c5a:	4789                	li	a5,2
   10c5c:	07800d93          	li	s11,120
   10c60:	bc81                	j	106b0 <_vfprintf_r+0x3b6>
   10c62:	66c2                	ld	a3,16(sp)
   10c64:	0204f793          	andi	a5,s1,32
   10c68:	6298                	ld	a4,0(a3)
   10c6a:	06a1                	addi	a3,a3,8
   10c6c:	e836                	sd	a3,16(sp)
   10c6e:	58079b63          	bnez	a5,11204 <_vfprintf_r+0xf0a>
   10c72:	0104f793          	andi	a5,s1,16
   10c76:	58079763          	bnez	a5,11204 <_vfprintf_r+0xf0a>
   10c7a:	0404f793          	andi	a5,s1,64
   10c7e:	36079ce3          	bnez	a5,117f6 <_vfprintf_r+0x14fc>
   10c82:	2004f493          	andi	s1,s1,512
   10c86:	6782                	ld	a5,0(sp)
   10c88:	e099                	bnez	s1,10c8e <_vfprintf_r+0x994>
   10c8a:	0860106f          	j	11d10 <_vfprintf_r+0x1a16>
   10c8e:	00f70023          	sb	a5,0(a4)
   10c92:	8ca2                	mv	s9,s0
   10c94:	b209                	j	10596 <_vfprintf_r+0x29c>
   10c96:	00044e83          	lbu	t4,0(s0)
   10c9a:	06c00793          	li	a5,108
   10c9e:	6cfe8f63          	beq	t4,a5,1137c <_vfprintf_r+0x1082>
   10ca2:	0104e493          	ori	s1,s1,16
   10ca6:	2481                	sext.w	s1,s1
   10ca8:	f8eff06f          	j	10436 <_vfprintf_r+0x13c>
   10cac:	00044e83          	lbu	t4,0(s0)
   10cb0:	06800793          	li	a5,104
   10cb4:	6afe8c63          	beq	t4,a5,1136c <_vfprintf_r+0x1072>
   10cb8:	0404e493          	ori	s1,s1,64
   10cbc:	2481                	sext.w	s1,s1
   10cbe:	f78ff06f          	j	10436 <_vfprintf_r+0x13c>
   10cc2:	4705                	li	a4,1
   10cc4:	00e79463          	bne	a5,a4,10ccc <_vfprintf_r+0x9d2>
   10cc8:	79f0006f          	j	11c66 <_vfprintf_r+0x196c>
   10ccc:	4709                	li	a4,2
   10cce:	8826                	mv	a6,s1
   10cd0:	d8e793e3          	bne	a5,a4,10a56 <_vfprintf_r+0x75c>
   10cd4:	18c10c13          	addi	s8,sp,396
   10cd8:	8ce2                	mv	s9,s8
   10cda:	7722                	ld	a4,40(sp)
   10cdc:	00fa7793          	andi	a5,s4,15
   10ce0:	1cfd                	addi	s9,s9,-1
   10ce2:	97ba                	add	a5,a5,a4
   10ce4:	0007c783          	lbu	a5,0(a5)
   10ce8:	004a5a13          	srli	s4,s4,0x4
   10cec:	00fc8023          	sb	a5,0(s9)
   10cf0:	fe0a15e3          	bnez	s4,10cda <_vfprintf_r+0x9e0>
   10cf4:	419c0c3b          	subw	s8,s8,s9
   10cf8:	84c2                	mv	s1,a6
   10cfa:	ba8d                	j	1066c <_vfprintf_r+0x372>
   10cfc:	06500713          	li	a4,101
   10d00:	c3b752e3          	bge	a4,s11,10924 <_vfprintf_r+0x62a>
   10d04:	6512                	ld	a0,256(sp)
   10d06:	65b2                	ld	a1,264(sp)
   10d08:	4601                	li	a2,0
   10d0a:	4681                	li	a3,0
   10d0c:	f83e                	sd	a5,48(sp)
   10d0e:	e41a                	sd	t1,8(sp)
   10d10:	4d60a0ef          	jal	ra,1b1e6 <__eqtf2>
   10d14:	6322                	ld	t1,8(sp)
   10d16:	77c2                	ld	a5,48(sp)
   10d18:	32051763          	bnez	a0,11046 <_vfprintf_r+0xd4c>
   10d1c:	11812703          	lw	a4,280(sp)
   10d20:	0000c697          	auipc	a3,0xc
   10d24:	98068693          	addi	a3,a3,-1664 # 1c6a0 <__clzdi2+0xd2>
   10d28:	00d33023          	sd	a3,0(t1)
   10d2c:	2705                	addiw	a4,a4,1
   10d2e:	4685                	li	a3,1
   10d30:	0785                	addi	a5,a5,1
   10d32:	00d33423          	sd	a3,8(t1)
   10d36:	10e12c23          	sw	a4,280(sp)
   10d3a:	0007069b          	sext.w	a3,a4
   10d3e:	f23e                	sd	a5,288(sp)
   10d40:	471d                	li	a4,7
   10d42:	0341                	addi	t1,t1,16
   10d44:	76d74f63          	blt	a4,a3,114c2 <_vfprintf_r+0x11c8>
   10d48:	572e                	lw	a4,232(sp)
   10d4a:	7682                	ld	a3,32(sp)
   10d4c:	4ad75763          	bge	a4,a3,111fa <_vfprintf_r+0xf00>
   10d50:	7766                	ld	a4,120(sp)
   10d52:	76c6                	ld	a3,112(sp)
   10d54:	0341                	addi	t1,t1,16
   10d56:	fee33823          	sd	a4,-16(t1)
   10d5a:	11812703          	lw	a4,280(sp)
   10d5e:	97b6                	add	a5,a5,a3
   10d60:	fed33c23          	sd	a3,-8(t1)
   10d64:	2705                	addiw	a4,a4,1
   10d66:	0007069b          	sext.w	a3,a4
   10d6a:	10e12c23          	sw	a4,280(sp)
   10d6e:	f23e                	sd	a5,288(sp)
   10d70:	471d                	li	a4,7
   10d72:	60d74d63          	blt	a4,a3,1138c <_vfprintf_r+0x1092>
   10d76:	7702                	ld	a4,32(sp)
   10d78:	fff70c1b          	addiw	s8,a4,-1
   10d7c:	ff805463          	blez	s8,10564 <_vfprintf_r+0x26a>
   10d80:	11812703          	lw	a4,280(sp)
   10d84:	758d5963          	bge	s10,s8,114d6 <_vfprintf_r+0x11dc>
   10d88:	4c9d                	li	s9,7
   10d8a:	a021                	j	10d92 <_vfprintf_r+0xa98>
   10d8c:	3c41                	addiw	s8,s8,-16
   10d8e:	758d5463          	bge	s10,s8,114d6 <_vfprintf_r+0x11dc>
   10d92:	2705                	addiw	a4,a4,1
   10d94:	07c1                	addi	a5,a5,16
   10d96:	01233023          	sd	s2,0(t1)
   10d9a:	01a33423          	sd	s10,8(t1)
   10d9e:	f23e                	sd	a5,288(sp)
   10da0:	10e12c23          	sw	a4,280(sp)
   10da4:	0341                	addi	t1,t1,16
   10da6:	feecd3e3          	bge	s9,a4,10d8c <_vfprintf_r+0xa92>
   10daa:	0a10                	addi	a2,sp,272
   10dac:	85ce                	mv	a1,s3
   10dae:	8556                	mv	a0,s5
   10db0:	448070ef          	jal	ra,181f8 <__sprint_r>
   10db4:	12051163          	bnez	a0,10ed6 <_vfprintf_r+0xbdc>
   10db8:	7792                	ld	a5,288(sp)
   10dba:	11812703          	lw	a4,280(sp)
   10dbe:	835e                	mv	t1,s7
   10dc0:	b7f1                	j	10d8c <_vfprintf_r+0xa92>
   10dc2:	414b06bb          	subw	a3,s6,s4
   10dc6:	f6d05663          	blez	a3,10532 <_vfprintf_r+0x238>
   10dca:	11812703          	lw	a4,280(sp)
   10dce:	04dd5563          	bge	s10,a3,10e18 <_vfprintf_r+0xb1e>
   10dd2:	489d                	li	a7,7
   10dd4:	a021                	j	10ddc <_vfprintf_r+0xae2>
   10dd6:	36c1                	addiw	a3,a3,-16
   10dd8:	04dd5063          	bge	s10,a3,10e18 <_vfprintf_r+0xb1e>
   10ddc:	2705                	addiw	a4,a4,1
   10dde:	07c1                	addi	a5,a5,16
   10de0:	01233023          	sd	s2,0(t1)
   10de4:	01a33423          	sd	s10,8(t1)
   10de8:	f23e                	sd	a5,288(sp)
   10dea:	10e12c23          	sw	a4,280(sp)
   10dee:	0341                	addi	t1,t1,16
   10df0:	fee8d3e3          	bge	a7,a4,10dd6 <_vfprintf_r+0xadc>
   10df4:	0a10                	addi	a2,sp,272
   10df6:	85ce                	mv	a1,s3
   10df8:	8556                	mv	a0,s5
   10dfa:	f87a                	sd	t5,48(sp)
   10dfc:	e436                	sd	a3,8(sp)
   10dfe:	3fa070ef          	jal	ra,181f8 <__sprint_r>
   10e02:	e971                	bnez	a0,10ed6 <_vfprintf_r+0xbdc>
   10e04:	66a2                	ld	a3,8(sp)
   10e06:	7792                	ld	a5,288(sp)
   10e08:	11812703          	lw	a4,280(sp)
   10e0c:	36c1                	addiw	a3,a3,-16
   10e0e:	7f42                	ld	t5,48(sp)
   10e10:	835e                	mv	t1,s7
   10e12:	489d                	li	a7,7
   10e14:	fcdd44e3          	blt	s10,a3,10ddc <_vfprintf_r+0xae2>
   10e18:	2705                	addiw	a4,a4,1
   10e1a:	97b6                	add	a5,a5,a3
   10e1c:	00d33423          	sd	a3,8(t1)
   10e20:	01233023          	sd	s2,0(t1)
   10e24:	0007069b          	sext.w	a3,a4
   10e28:	10e12c23          	sw	a4,280(sp)
   10e2c:	f23e                	sd	a5,288(sp)
   10e2e:	471d                	li	a4,7
   10e30:	0341                	addi	t1,t1,16
   10e32:	f0d75063          	bge	a4,a3,10532 <_vfprintf_r+0x238>
   10e36:	0a10                	addi	a2,sp,272
   10e38:	85ce                	mv	a1,s3
   10e3a:	8556                	mv	a0,s5
   10e3c:	e47a                	sd	t5,8(sp)
   10e3e:	3ba070ef          	jal	ra,181f8 <__sprint_r>
   10e42:	e951                	bnez	a0,10ed6 <_vfprintf_r+0xbdc>
   10e44:	7792                	ld	a5,288(sp)
   10e46:	6f22                	ld	t5,8(sp)
   10e48:	835e                	mv	t1,s7
   10e4a:	ee8ff06f          	j	10532 <_vfprintf_r+0x238>
   10e4e:	11812703          	lw	a4,280(sp)
   10e52:	05ed5363          	bge	s10,t5,10e98 <_vfprintf_r+0xb9e>
   10e56:	489d                	li	a7,7
   10e58:	a021                	j	10e60 <_vfprintf_r+0xb66>
   10e5a:	3f41                	addiw	t5,t5,-16
   10e5c:	03ed5e63          	bge	s10,t5,10e98 <_vfprintf_r+0xb9e>
   10e60:	2705                	addiw	a4,a4,1
   10e62:	07c1                	addi	a5,a5,16
   10e64:	01233023          	sd	s2,0(t1)
   10e68:	01a33423          	sd	s10,8(t1)
   10e6c:	f23e                	sd	a5,288(sp)
   10e6e:	10e12c23          	sw	a4,280(sp)
   10e72:	0341                	addi	t1,t1,16
   10e74:	fee8d3e3          	bge	a7,a4,10e5a <_vfprintf_r+0xb60>
   10e78:	0a10                	addi	a2,sp,272
   10e7a:	85ce                	mv	a1,s3
   10e7c:	8556                	mv	a0,s5
   10e7e:	e47a                	sd	t5,8(sp)
   10e80:	378070ef          	jal	ra,181f8 <__sprint_r>
   10e84:	e929                	bnez	a0,10ed6 <_vfprintf_r+0xbdc>
   10e86:	6f22                	ld	t5,8(sp)
   10e88:	7792                	ld	a5,288(sp)
   10e8a:	11812703          	lw	a4,280(sp)
   10e8e:	3f41                	addiw	t5,t5,-16
   10e90:	835e                	mv	t1,s7
   10e92:	489d                	li	a7,7
   10e94:	fded46e3          	blt	s10,t5,10e60 <_vfprintf_r+0xb66>
   10e98:	0017069b          	addiw	a3,a4,1
   10e9c:	97fa                	add	a5,a5,t5
   10e9e:	01233023          	sd	s2,0(t1)
   10ea2:	01e33423          	sd	t5,8(t1)
   10ea6:	f23e                	sd	a5,288(sp)
   10ea8:	10d12c23          	sw	a3,280(sp)
   10eac:	471d                	li	a4,7
   10eae:	0341                	addi	t1,t1,16
   10eb0:	e8d75563          	bge	a4,a3,1053a <_vfprintf_r+0x240>
   10eb4:	0a10                	addi	a2,sp,272
   10eb6:	85ce                	mv	a1,s3
   10eb8:	8556                	mv	a0,s5
   10eba:	33e070ef          	jal	ra,181f8 <__sprint_r>
   10ebe:	ed01                	bnez	a0,10ed6 <_vfprintf_r+0xbdc>
   10ec0:	7792                	ld	a5,288(sp)
   10ec2:	835e                	mv	t1,s7
   10ec4:	e76ff06f          	j	1053a <_vfprintf_r+0x240>
   10ec8:	0a10                	addi	a2,sp,272
   10eca:	85ce                	mv	a1,s3
   10ecc:	8556                	mv	a0,s5
   10ece:	32a070ef          	jal	ra,181f8 <__sprint_r>
   10ed2:	ea050863          	beqz	a0,10582 <_vfprintf_r+0x288>
   10ed6:	67e2                	ld	a5,24(sp)
   10ed8:	ec078763          	beqz	a5,105a6 <_vfprintf_r+0x2ac>
   10edc:	85be                	mv	a1,a5
   10ede:	8556                	mv	a0,s5
   10ee0:	7fc010ef          	jal	ra,126dc <_free_r>
   10ee4:	ec2ff06f          	j	105a6 <_vfprintf_r+0x2ac>
   10ee8:	4705                	li	a4,1
   10eea:	8826                	mv	a6,s1
   10eec:	b6e792e3          	bne	a5,a4,10a50 <_vfprintf_r+0x756>
   10ef0:	47a5                	li	a5,9
   10ef2:	3547ef63          	bltu	a5,s4,11250 <_vfprintf_r+0xf56>
   10ef6:	030a0a1b          	addiw	s4,s4,48
   10efa:	194105a3          	sb	s4,395(sp)
   10efe:	84c2                	mv	s1,a6
   10f00:	4c05                	li	s8,1
   10f02:	18b10c93          	addi	s9,sp,395
   10f06:	f66ff06f          	j	1066c <_vfprintf_r+0x372>
   10f0a:	11812703          	lw	a4,280(sp)
   10f0e:	0000c897          	auipc	a7,0xc
   10f12:	90a88893          	addi	a7,a7,-1782 # 1c818 <blanks.1>
   10f16:	439d                	li	t2,7
   10f18:	00dd4663          	blt	s10,a3,10f24 <_vfprintf_r+0xc2a>
   10f1c:	a881                	j	10f6c <_vfprintf_r+0xc72>
   10f1e:	36c1                	addiw	a3,a3,-16
   10f20:	04dd5663          	bge	s10,a3,10f6c <_vfprintf_r+0xc72>
   10f24:	2705                	addiw	a4,a4,1
   10f26:	07c1                	addi	a5,a5,16
   10f28:	01133023          	sd	a7,0(t1)
   10f2c:	01a33423          	sd	s10,8(t1)
   10f30:	f23e                	sd	a5,288(sp)
   10f32:	10e12c23          	sw	a4,280(sp)
   10f36:	0341                	addi	t1,t1,16
   10f38:	fee3d3e3          	bge	t2,a4,10f1e <_vfprintf_r+0xc24>
   10f3c:	0a10                	addi	a2,sp,272
   10f3e:	85ce                	mv	a1,s3
   10f40:	8556                	mv	a0,s5
   10f42:	e4c6                	sd	a7,72(sp)
   10f44:	e0b6                	sd	a3,64(sp)
   10f46:	fc7a                	sd	t5,56(sp)
   10f48:	f87e                	sd	t6,48(sp)
   10f4a:	e416                	sd	t0,8(sp)
   10f4c:	2ac070ef          	jal	ra,181f8 <__sprint_r>
   10f50:	f159                	bnez	a0,10ed6 <_vfprintf_r+0xbdc>
   10f52:	6686                	ld	a3,64(sp)
   10f54:	7792                	ld	a5,288(sp)
   10f56:	11812703          	lw	a4,280(sp)
   10f5a:	36c1                	addiw	a3,a3,-16
   10f5c:	68a6                	ld	a7,72(sp)
   10f5e:	7f62                	ld	t5,56(sp)
   10f60:	7fc2                	ld	t6,48(sp)
   10f62:	62a2                	ld	t0,8(sp)
   10f64:	835e                	mv	t1,s7
   10f66:	439d                	li	t2,7
   10f68:	fadd4ee3          	blt	s10,a3,10f24 <_vfprintf_r+0xc2a>
   10f6c:	2705                	addiw	a4,a4,1
   10f6e:	97b6                	add	a5,a5,a3
   10f70:	00d33423          	sd	a3,8(t1)
   10f74:	01133023          	sd	a7,0(t1)
   10f78:	0007069b          	sext.w	a3,a4
   10f7c:	10e12c23          	sw	a4,280(sp)
   10f80:	f23e                	sd	a5,288(sp)
   10f82:	471d                	li	a4,7
   10f84:	0341                	addi	t1,t1,16
   10f86:	d4d75663          	bge	a4,a3,104d2 <_vfprintf_r+0x1d8>
   10f8a:	0a10                	addi	a2,sp,272
   10f8c:	85ce                	mv	a1,s3
   10f8e:	8556                	mv	a0,s5
   10f90:	fc7a                	sd	t5,56(sp)
   10f92:	f87e                	sd	t6,48(sp)
   10f94:	e416                	sd	t0,8(sp)
   10f96:	262070ef          	jal	ra,181f8 <__sprint_r>
   10f9a:	fd15                	bnez	a0,10ed6 <_vfprintf_r+0xbdc>
   10f9c:	7792                	ld	a5,288(sp)
   10f9e:	7f62                	ld	t5,56(sp)
   10fa0:	7fc2                	ld	t6,48(sp)
   10fa2:	62a2                	ld	t0,8(sp)
   10fa4:	835e                	mv	t1,s7
   10fa6:	d2cff06f          	j	104d2 <_vfprintf_r+0x1d8>
   10faa:	0a10                	addi	a2,sp,272
   10fac:	85ce                	mv	a1,s3
   10fae:	8556                	mv	a0,s5
   10fb0:	f87a                	sd	t5,48(sp)
   10fb2:	e47e                	sd	t6,8(sp)
   10fb4:	244070ef          	jal	ra,181f8 <__sprint_r>
   10fb8:	fd19                	bnez	a0,10ed6 <_vfprintf_r+0xbdc>
   10fba:	7792                	ld	a5,288(sp)
   10fbc:	7f42                	ld	t5,48(sp)
   10fbe:	6fa2                	ld	t6,8(sp)
   10fc0:	835e                	mv	t1,s7
   10fc2:	d68ff06f          	j	1052a <_vfprintf_r+0x230>
   10fc6:	11812703          	lw	a4,280(sp)
   10fca:	0000c897          	auipc	a7,0xc
   10fce:	84e88893          	addi	a7,a7,-1970 # 1c818 <blanks.1>
   10fd2:	4c1d                	li	s8,7
   10fd4:	009d4663          	blt	s10,s1,10fe0 <_vfprintf_r+0xce6>
   10fd8:	a081                	j	11018 <_vfprintf_r+0xd1e>
   10fda:	34c1                	addiw	s1,s1,-16
   10fdc:	029d5e63          	bge	s10,s1,11018 <_vfprintf_r+0xd1e>
   10fe0:	2705                	addiw	a4,a4,1
   10fe2:	07c1                	addi	a5,a5,16
   10fe4:	01133023          	sd	a7,0(t1)
   10fe8:	01a33423          	sd	s10,8(t1)
   10fec:	f23e                	sd	a5,288(sp)
   10fee:	10e12c23          	sw	a4,280(sp)
   10ff2:	0341                	addi	t1,t1,16
   10ff4:	feec53e3          	bge	s8,a4,10fda <_vfprintf_r+0xce0>
   10ff8:	0a10                	addi	a2,sp,272
   10ffa:	85ce                	mv	a1,s3
   10ffc:	8556                	mv	a0,s5
   10ffe:	e446                	sd	a7,8(sp)
   11000:	1f8070ef          	jal	ra,181f8 <__sprint_r>
   11004:	ec0519e3          	bnez	a0,10ed6 <_vfprintf_r+0xbdc>
   11008:	34c1                	addiw	s1,s1,-16
   1100a:	7792                	ld	a5,288(sp)
   1100c:	11812703          	lw	a4,280(sp)
   11010:	68a2                	ld	a7,8(sp)
   11012:	835e                	mv	t1,s7
   11014:	fc9d46e3          	blt	s10,s1,10fe0 <_vfprintf_r+0xce6>
   11018:	0017069b          	addiw	a3,a4,1
   1101c:	97a6                	add	a5,a5,s1
   1101e:	01133023          	sd	a7,0(t1)
   11022:	00933423          	sd	s1,8(t1)
   11026:	f23e                	sd	a5,288(sp)
   11028:	10d12c23          	sw	a3,280(sp)
   1102c:	471d                	li	a4,7
   1102e:	d4d75163          	bge	a4,a3,10570 <_vfprintf_r+0x276>
   11032:	0a10                	addi	a2,sp,272
   11034:	85ce                	mv	a1,s3
   11036:	8556                	mv	a0,s5
   11038:	1c0070ef          	jal	ra,181f8 <__sprint_r>
   1103c:	e8051de3          	bnez	a0,10ed6 <_vfprintf_r+0xbdc>
   11040:	7792                	ld	a5,288(sp)
   11042:	d2eff06f          	j	10570 <_vfprintf_r+0x276>
   11046:	562e                	lw	a2,232(sp)
   11048:	40c05163          	blez	a2,1144a <_vfprintf_r+0x1150>
   1104c:	6766                	ld	a4,88(sp)
   1104e:	7682                	ld	a3,32(sp)
   11050:	00070c1b          	sext.w	s8,a4
   11054:	28e6c263          	blt	a3,a4,112d8 <_vfprintf_r+0xfde>
   11058:	03805263          	blez	s8,1107c <_vfprintf_r+0xd82>
   1105c:	11812703          	lw	a4,280(sp)
   11060:	97e2                	add	a5,a5,s8
   11062:	01933023          	sd	s9,0(t1)
   11066:	0017069b          	addiw	a3,a4,1
   1106a:	01833423          	sd	s8,8(t1)
   1106e:	f23e                	sd	a5,288(sp)
   11070:	10d12c23          	sw	a3,280(sp)
   11074:	471d                	li	a4,7
   11076:	0341                	addi	t1,t1,16
   11078:	74d74463          	blt	a4,a3,117c0 <_vfprintf_r+0x14c6>
   1107c:	fffc4713          	not	a4,s8
   11080:	977d                	srai	a4,a4,0x3f
   11082:	00ec7c33          	and	s8,s8,a4
   11086:	6766                	ld	a4,88(sp)
   11088:	41870c3b          	subw	s8,a4,s8
   1108c:	33804d63          	bgtz	s8,113c6 <_vfprintf_r+0x10cc>
   11090:	66e6                	ld	a3,88(sp)
   11092:	4004f713          	andi	a4,s1,1024
   11096:	00dc8db3          	add	s11,s9,a3
   1109a:	5a071663          	bnez	a4,11646 <_vfprintf_r+0x134c>
   1109e:	572e                	lw	a4,232(sp)
   110a0:	7682                	ld	a3,32(sp)
   110a2:	00d74663          	blt	a4,a3,110ae <_vfprintf_r+0xdb4>
   110a6:	0014f693          	andi	a3,s1,1
   110aa:	72068763          	beqz	a3,117d8 <_vfprintf_r+0x14de>
   110ae:	76e6                	ld	a3,120(sp)
   110b0:	7646                	ld	a2,112(sp)
   110b2:	0341                	addi	t1,t1,16
   110b4:	fed33823          	sd	a3,-16(t1)
   110b8:	11812683          	lw	a3,280(sp)
   110bc:	97b2                	add	a5,a5,a2
   110be:	fec33c23          	sd	a2,-8(t1)
   110c2:	2685                	addiw	a3,a3,1
   110c4:	0006861b          	sext.w	a2,a3
   110c8:	10d12c23          	sw	a3,280(sp)
   110cc:	f23e                	sd	a5,288(sp)
   110ce:	469d                	li	a3,7
   110d0:	1ec6c2e3          	blt	a3,a2,11ab4 <_vfprintf_r+0x17ba>
   110d4:	7682                	ld	a3,32(sp)
   110d6:	00dc8633          	add	a2,s9,a3
   110da:	40e6873b          	subw	a4,a3,a4
   110de:	41b6063b          	subw	a2,a2,s11
   110e2:	0007069b          	sext.w	a3,a4
   110e6:	00d65363          	bge	a2,a3,110ec <_vfprintf_r+0xdf2>
   110ea:	8732                	mv	a4,a2
   110ec:	00070c9b          	sext.w	s9,a4
   110f0:	03905263          	blez	s9,11114 <_vfprintf_r+0xe1a>
   110f4:	11812603          	lw	a2,280(sp)
   110f8:	97e6                	add	a5,a5,s9
   110fa:	01b33023          	sd	s11,0(t1)
   110fe:	0016059b          	addiw	a1,a2,1
   11102:	01933423          	sd	s9,8(t1)
   11106:	f23e                	sd	a5,288(sp)
   11108:	10b12c23          	sw	a1,280(sp)
   1110c:	461d                	li	a2,7
   1110e:	0341                	addi	t1,t1,16
   11110:	2ab64be3          	blt	a2,a1,11bc6 <_vfprintf_r+0x18cc>
   11114:	fffccc13          	not	s8,s9
   11118:	43fc5c13          	srai	s8,s8,0x3f
   1111c:	018cfc33          	and	s8,s9,s8
   11120:	41868c3b          	subw	s8,a3,s8
   11124:	c5805063          	blez	s8,10564 <_vfprintf_r+0x26a>
   11128:	11812703          	lw	a4,280(sp)
   1112c:	3b8d5563          	bge	s10,s8,114d6 <_vfprintf_r+0x11dc>
   11130:	4c9d                	li	s9,7
   11132:	a021                	j	1113a <_vfprintf_r+0xe40>
   11134:	3c41                	addiw	s8,s8,-16
   11136:	3b8d5063          	bge	s10,s8,114d6 <_vfprintf_r+0x11dc>
   1113a:	2705                	addiw	a4,a4,1
   1113c:	07c1                	addi	a5,a5,16
   1113e:	01233023          	sd	s2,0(t1)
   11142:	01a33423          	sd	s10,8(t1)
   11146:	f23e                	sd	a5,288(sp)
   11148:	10e12c23          	sw	a4,280(sp)
   1114c:	0341                	addi	t1,t1,16
   1114e:	feecd3e3          	bge	s9,a4,11134 <_vfprintf_r+0xe3a>
   11152:	0a10                	addi	a2,sp,272
   11154:	85ce                	mv	a1,s3
   11156:	8556                	mv	a0,s5
   11158:	0a0070ef          	jal	ra,181f8 <__sprint_r>
   1115c:	d6051de3          	bnez	a0,10ed6 <_vfprintf_r+0xbdc>
   11160:	7792                	ld	a5,288(sp)
   11162:	11812703          	lw	a4,280(sp)
   11166:	835e                	mv	t1,s7
   11168:	b7f1                	j	11134 <_vfprintf_r+0xe3a>
   1116a:	0014f513          	andi	a0,s1,1
   1116e:	fc051a63          	bnez	a0,10942 <_vfprintf_r+0x648>
   11172:	00b33423          	sd	a1,8(t1)
   11176:	f26e                	sd	s11,288(sp)
   11178:	10e12c23          	sw	a4,280(sp)
   1117c:	469d                	li	a3,7
   1117e:	18e6c163          	blt	a3,a4,11300 <_vfprintf_r+0x1006>
   11182:	2609                	addiw	a2,a2,2
   11184:	02030313          	addi	t1,t1,32
   11188:	841ff06f          	j	109c8 <_vfprintf_r+0x6ce>
   1118c:	82d05ee3          	blez	a3,109c8 <_vfprintf_r+0x6ce>
   11190:	4edd5ae3          	bge	s10,a3,11e84 <_vfprintf_r+0x1b8a>
   11194:	4c9d                	li	s9,7
   11196:	a031                	j	111a2 <_vfprintf_r+0xea8>
   11198:	36c1                	addiw	a3,a3,-16
   1119a:	14dd5463          	bge	s10,a3,112e2 <_vfprintf_r+0xfe8>
   1119e:	0017089b          	addiw	a7,a4,1
   111a2:	0dc1                	addi	s11,s11,16
   111a4:	012c3023          	sd	s2,0(s8)
   111a8:	01ac3423          	sd	s10,8(s8)
   111ac:	f26e                	sd	s11,288(sp)
   111ae:	0008871b          	sext.w	a4,a7
   111b2:	11112c23          	sw	a7,280(sp)
   111b6:	0c41                	addi	s8,s8,16
   111b8:	feecd0e3          	bge	s9,a4,11198 <_vfprintf_r+0xe9e>
   111bc:	0a10                	addi	a2,sp,272
   111be:	85ce                	mv	a1,s3
   111c0:	8556                	mv	a0,s5
   111c2:	e436                	sd	a3,8(sp)
   111c4:	034070ef          	jal	ra,181f8 <__sprint_r>
   111c8:	d00517e3          	bnez	a0,10ed6 <_vfprintf_r+0xbdc>
   111cc:	7d92                	ld	s11,288(sp)
   111ce:	11812703          	lw	a4,280(sp)
   111d2:	66a2                	ld	a3,8(sp)
   111d4:	8c5e                	mv	s8,s7
   111d6:	b7c9                	j	11198 <_vfprintf_r+0xe9e>
   111d8:	01087793          	andi	a5,a6,16
   111dc:	eb8d                	bnez	a5,1120e <_vfprintf_r+0xf14>
   111de:	66c2                	ld	a3,16(sp)
   111e0:	04087793          	andi	a5,a6,64
   111e4:	0006aa03          	lw	s4,0(a3)
   111e8:	3c078263          	beqz	a5,115ac <_vfprintf_r+0x12b2>
   111ec:	1a42                	slli	s4,s4,0x30
   111ee:	030a5a13          	srli	s4,s4,0x30
   111f2:	e83a                	sd	a4,16(sp)
   111f4:	4785                	li	a5,1
   111f6:	cbaff06f          	j	106b0 <_vfprintf_r+0x3b6>
   111fa:	0014f713          	andi	a4,s1,1
   111fe:	b6070363          	beqz	a4,10564 <_vfprintf_r+0x26a>
   11202:	b6b9                	j	10d50 <_vfprintf_r+0xa56>
   11204:	6782                	ld	a5,0(sp)
   11206:	8ca2                	mv	s9,s0
   11208:	e31c                	sd	a5,0(a4)
   1120a:	b8cff06f          	j	10596 <_vfprintf_r+0x29c>
   1120e:	67c2                	ld	a5,16(sp)
   11210:	e83a                	sd	a4,16(sp)
   11212:	0007ba03          	ld	s4,0(a5)
   11216:	4785                	li	a5,1
   11218:	c98ff06f          	j	106b0 <_vfprintf_r+0x3b6>
   1121c:	67c2                	ld	a5,16(sp)
   1121e:	639c                	ld	a5,0(a5)
   11220:	8a3e                	mv	s4,a5
   11222:	c24ff06f          	j	10646 <_vfprintf_r+0x34c>
   11226:	67c2                	ld	a5,16(sp)
   11228:	0007ba03          	ld	s4,0(a5)
   1122c:	c78ff06f          	j	106a4 <_vfprintf_r+0x3aa>
   11230:	67c2                	ld	a5,16(sp)
   11232:	07bd                	addi	a5,a5,15
   11234:	9bc1                	andi	a5,a5,-16
   11236:	6394                	ld	a3,0(a5)
   11238:	6798                	ld	a4,8(a5)
   1123a:	07c1                	addi	a5,a5,16
   1123c:	e83e                	sd	a5,16(sp)
   1123e:	e236                	sd	a3,256(sp)
   11240:	e63a                	sd	a4,264(sp)
   11242:	ce4ff06f          	j	10726 <_vfprintf_r+0x42c>
   11246:	e83a                	sd	a4,16(sp)
   11248:	47a5                	li	a5,9
   1124a:	8826                	mv	a6,s1
   1124c:	cb47f5e3          	bgeu	a5,s4,10ef6 <_vfprintf_r+0xbfc>
   11250:	18c10c13          	addi	s8,sp,396
   11254:	40087793          	andi	a5,a6,1024
   11258:	f002                	sd	zero,32(sp)
   1125a:	85e2                	mv	a1,s8
   1125c:	44a9                	li	s1,10
   1125e:	4725                	li	a4,9
   11260:	0ff00693          	li	a3,255
   11264:	a039                	j	11272 <_vfprintf_r+0xf78>
   11266:	029a5633          	divu	a2,s4,s1
   1126a:	a94775e3          	bgeu	a4,s4,10cf4 <_vfprintf_r+0x9fa>
   1126e:	8a32                	mv	s4,a2
   11270:	85e6                	mv	a1,s9
   11272:	7502                	ld	a0,32(sp)
   11274:	fff58c93          	addi	s9,a1,-1
   11278:	2505                	addiw	a0,a0,1
   1127a:	f02a                	sd	a0,32(sp)
   1127c:	029a7633          	remu	a2,s4,s1
   11280:	0306061b          	addiw	a2,a2,48
   11284:	fec58fa3          	sb	a2,-1(a1)
   11288:	dff9                	beqz	a5,11266 <_vfprintf_r+0xf6c>
   1128a:	7626                	ld	a2,104(sp)
   1128c:	00064603          	lbu	a2,0(a2)
   11290:	fcc51be3          	bne	a0,a2,11266 <_vfprintf_r+0xf6c>
   11294:	fcd609e3          	beq	a2,a3,11266 <_vfprintf_r+0xf6c>
   11298:	a5477ee3          	bgeu	a4,s4,10cf4 <_vfprintf_r+0x9fa>
   1129c:	e43e                	sd	a5,8(sp)
   1129e:	67aa                	ld	a5,136(sp)
   112a0:	65ca                	ld	a1,144(sp)
   112a2:	fc1a                	sd	t1,56(sp)
   112a4:	40fc8cb3          	sub	s9,s9,a5
   112a8:	863e                	mv	a2,a5
   112aa:	8566                	mv	a0,s9
   112ac:	f87a                	sd	t5,48(sp)
   112ae:	ec42                	sd	a6,24(sp)
   112b0:	2a2050ef          	jal	ra,16552 <strncpy>
   112b4:	77a6                	ld	a5,104(sp)
   112b6:	029a5633          	divu	a2,s4,s1
   112ba:	6862                	ld	a6,24(sp)
   112bc:	0017c583          	lbu	a1,1(a5)
   112c0:	7f42                	ld	t5,48(sp)
   112c2:	7362                	ld	t1,56(sp)
   112c4:	00b035b3          	snez	a1,a1
   112c8:	97ae                	add	a5,a5,a1
   112ca:	f4be                	sd	a5,104(sp)
   112cc:	f002                	sd	zero,32(sp)
   112ce:	67a2                	ld	a5,8(sp)
   112d0:	4725                	li	a4,9
   112d2:	0ff00693          	li	a3,255
   112d6:	bf61                	j	1126e <_vfprintf_r+0xf74>
   112d8:	00068c1b          	sext.w	s8,a3
   112dc:	d98040e3          	bgtz	s8,1105c <_vfprintf_r+0xd62>
   112e0:	bb71                	j	1107c <_vfprintf_r+0xd82>
   112e2:	0017061b          	addiw	a2,a4,1
   112e6:	010c0713          	addi	a4,s8,16
   112ea:	9db6                	add	s11,s11,a3
   112ec:	00dc3423          	sd	a3,8(s8)
   112f0:	012c3023          	sd	s2,0(s8)
   112f4:	f26e                	sd	s11,288(sp)
   112f6:	10c12c23          	sw	a2,280(sp)
   112fa:	469d                	li	a3,7
   112fc:	48c6dc63          	bge	a3,a2,11794 <_vfprintf_r+0x149a>
   11300:	0a10                	addi	a2,sp,272
   11302:	85ce                	mv	a1,s3
   11304:	8556                	mv	a0,s5
   11306:	6f3060ef          	jal	ra,181f8 <__sprint_r>
   1130a:	bc0516e3          	bnez	a0,10ed6 <_vfprintf_r+0xbdc>
   1130e:	11812603          	lw	a2,280(sp)
   11312:	7d92                	ld	s11,288(sp)
   11314:	1a010313          	addi	t1,sp,416
   11318:	2605                	addiw	a2,a2,1
   1131a:	8c5e                	mv	s8,s7
   1131c:	eacff06f          	j	109c8 <_vfprintf_r+0x6ce>
   11320:	8826                	mv	a6,s1
   11322:	807ff06f          	j	10b28 <_vfprintf_r+0x82e>
   11326:	0000b797          	auipc	a5,0xb
   1132a:	35a78793          	addi	a5,a5,858 # 1c680 <__clzdi2+0xb2>
   1132e:	f43e                	sd	a5,40(sp)
   11330:	66c2                	ld	a3,16(sp)
   11332:	0204f793          	andi	a5,s1,32
   11336:	00868713          	addi	a4,a3,8
   1133a:	c7f9                	beqz	a5,11408 <_vfprintf_r+0x110e>
   1133c:	0006ba03          	ld	s4,0(a3)
   11340:	0014f793          	andi	a5,s1,1
   11344:	cf81                	beqz	a5,1135c <_vfprintf_r+0x1062>
   11346:	000a0b63          	beqz	s4,1135c <_vfprintf_r+0x1062>
   1134a:	0024e493          	ori	s1,s1,2
   1134e:	03000793          	li	a5,48
   11352:	0ef10023          	sb	a5,224(sp)
   11356:	0fb100a3          	sb	s11,225(sp)
   1135a:	2481                	sext.w	s1,s1
   1135c:	bff4f493          	andi	s1,s1,-1025
   11360:	0004881b          	sext.w	a6,s1
   11364:	e83a                	sd	a4,16(sp)
   11366:	4789                	li	a5,2
   11368:	b48ff06f          	j	106b0 <_vfprintf_r+0x3b6>
   1136c:	2004e493          	ori	s1,s1,512
   11370:	00144e83          	lbu	t4,1(s0)
   11374:	2481                	sext.w	s1,s1
   11376:	0405                	addi	s0,s0,1
   11378:	8beff06f          	j	10436 <_vfprintf_r+0x13c>
   1137c:	0204e493          	ori	s1,s1,32
   11380:	00144e83          	lbu	t4,1(s0)
   11384:	2481                	sext.w	s1,s1
   11386:	0405                	addi	s0,s0,1
   11388:	8aeff06f          	j	10436 <_vfprintf_r+0x13c>
   1138c:	0a10                	addi	a2,sp,272
   1138e:	85ce                	mv	a1,s3
   11390:	8556                	mv	a0,s5
   11392:	667060ef          	jal	ra,181f8 <__sprint_r>
   11396:	b40510e3          	bnez	a0,10ed6 <_vfprintf_r+0xbdc>
   1139a:	7792                	ld	a5,288(sp)
   1139c:	835e                	mv	t1,s7
   1139e:	bae1                	j	10d76 <_vfprintf_r+0xa7c>
   113a0:	0000b797          	auipc	a5,0xb
   113a4:	2c878793          	addi	a5,a5,712 # 1c668 <__clzdi2+0x9a>
   113a8:	f43e                	sd	a5,40(sp)
   113aa:	b759                	j	11330 <_vfprintf_r+0x1036>
   113ac:	4799                	li	a5,6
   113ae:	000f0c1b          	sext.w	s8,t5
   113b2:	43e7e163          	bltu	a5,t5,117d4 <_vfprintf_r+0x14da>
   113b6:	8a62                	mv	s4,s8
   113b8:	e836                	sd	a3,16(sp)
   113ba:	0000bc97          	auipc	s9,0xb
   113be:	2dec8c93          	addi	s9,s9,734 # 1c698 <__clzdi2+0xca>
   113c2:	8eaff06f          	j	104ac <_vfprintf_r+0x1b2>
   113c6:	11812703          	lw	a4,280(sp)
   113ca:	258d5663          	bge	s10,s8,11616 <_vfprintf_r+0x131c>
   113ce:	4d9d                	li	s11,7
   113d0:	a021                	j	113d8 <_vfprintf_r+0x10de>
   113d2:	3c41                	addiw	s8,s8,-16
   113d4:	258d5163          	bge	s10,s8,11616 <_vfprintf_r+0x131c>
   113d8:	2705                	addiw	a4,a4,1
   113da:	07c1                	addi	a5,a5,16
   113dc:	01233023          	sd	s2,0(t1)
   113e0:	01a33423          	sd	s10,8(t1)
   113e4:	f23e                	sd	a5,288(sp)
   113e6:	10e12c23          	sw	a4,280(sp)
   113ea:	0341                	addi	t1,t1,16
   113ec:	feedd3e3          	bge	s11,a4,113d2 <_vfprintf_r+0x10d8>
   113f0:	0a10                	addi	a2,sp,272
   113f2:	85ce                	mv	a1,s3
   113f4:	8556                	mv	a0,s5
   113f6:	603060ef          	jal	ra,181f8 <__sprint_r>
   113fa:	ac051ee3          	bnez	a0,10ed6 <_vfprintf_r+0xbdc>
   113fe:	7792                	ld	a5,288(sp)
   11400:	11812703          	lw	a4,280(sp)
   11404:	835e                	mv	t1,s7
   11406:	b7f1                	j	113d2 <_vfprintf_r+0x10d8>
   11408:	0104f793          	andi	a5,s1,16
   1140c:	c3c5                	beqz	a5,114ac <_vfprintf_r+0x11b2>
   1140e:	67c2                	ld	a5,16(sp)
   11410:	0007ba03          	ld	s4,0(a5)
   11414:	b735                	j	11340 <_vfprintf_r+0x1046>
   11416:	0a10                	addi	a2,sp,272
   11418:	85ce                	mv	a1,s3
   1141a:	8556                	mv	a0,s5
   1141c:	5dd060ef          	jal	ra,181f8 <__sprint_r>
   11420:	aa051be3          	bnez	a0,10ed6 <_vfprintf_r+0xbdc>
   11424:	7d92                	ld	s11,288(sp)
   11426:	11812703          	lw	a4,280(sp)
   1142a:	8c5e                	mv	s8,s7
   1142c:	d28ff06f          	j	10954 <_vfprintf_r+0x65a>
   11430:	0a10                	addi	a2,sp,272
   11432:	85ce                	mv	a1,s3
   11434:	8556                	mv	a0,s5
   11436:	5c3060ef          	jal	ra,181f8 <__sprint_r>
   1143a:	a8051ee3          	bnez	a0,10ed6 <_vfprintf_r+0xbdc>
   1143e:	7d92                	ld	s11,288(sp)
   11440:	11812703          	lw	a4,280(sp)
   11444:	8c5e                	mv	s8,s7
   11446:	d32ff06f          	j	10978 <_vfprintf_r+0x67e>
   1144a:	11812703          	lw	a4,280(sp)
   1144e:	0000b697          	auipc	a3,0xb
   11452:	25268693          	addi	a3,a3,594 # 1c6a0 <__clzdi2+0xd2>
   11456:	00d33023          	sd	a3,0(t1)
   1145a:	2705                	addiw	a4,a4,1
   1145c:	4685                	li	a3,1
   1145e:	0785                	addi	a5,a5,1
   11460:	00d33423          	sd	a3,8(t1)
   11464:	10e12c23          	sw	a4,280(sp)
   11468:	0007069b          	sext.w	a3,a4
   1146c:	f23e                	sd	a5,288(sp)
   1146e:	471d                	li	a4,7
   11470:	0341                	addi	t1,t1,16
   11472:	32d74763          	blt	a4,a3,117a0 <_vfprintf_r+0x14a6>
   11476:	ea55                	bnez	a2,1152a <_vfprintf_r+0x1230>
   11478:	7682                	ld	a3,32(sp)
   1147a:	0014f713          	andi	a4,s1,1
   1147e:	8f55                	or	a4,a4,a3
   11480:	8e070263          	beqz	a4,10564 <_vfprintf_r+0x26a>
   11484:	76e6                	ld	a3,120(sp)
   11486:	7746                	ld	a4,112(sp)
   11488:	00d33023          	sd	a3,0(t1)
   1148c:	11812683          	lw	a3,280(sp)
   11490:	97ba                	add	a5,a5,a4
   11492:	00e33423          	sd	a4,8(t1)
   11496:	2685                	addiw	a3,a3,1
   11498:	0006871b          	sext.w	a4,a3
   1149c:	10d12c23          	sw	a3,280(sp)
   114a0:	f23e                	sd	a5,288(sp)
   114a2:	469d                	li	a3,7
   114a4:	3ae6c163          	blt	a3,a4,11846 <_vfprintf_r+0x154c>
   114a8:	0341                	addi	t1,t1,16
   114aa:	a06d                	j	11554 <_vfprintf_r+0x125a>
   114ac:	66c2                	ld	a3,16(sp)
   114ae:	0404f793          	andi	a5,s1,64
   114b2:	0006aa03          	lw	s4,0(a3)
   114b6:	10078f63          	beqz	a5,115d4 <_vfprintf_r+0x12da>
   114ba:	1a42                	slli	s4,s4,0x30
   114bc:	030a5a13          	srli	s4,s4,0x30
   114c0:	b541                	j	11340 <_vfprintf_r+0x1046>
   114c2:	0a10                	addi	a2,sp,272
   114c4:	85ce                	mv	a1,s3
   114c6:	8556                	mv	a0,s5
   114c8:	531060ef          	jal	ra,181f8 <__sprint_r>
   114cc:	a00515e3          	bnez	a0,10ed6 <_vfprintf_r+0xbdc>
   114d0:	7792                	ld	a5,288(sp)
   114d2:	835e                	mv	t1,s7
   114d4:	b895                	j	10d48 <_vfprintf_r+0xa4e>
   114d6:	0017069b          	addiw	a3,a4,1
   114da:	8736                	mv	a4,a3
   114dc:	97e2                	add	a5,a5,s8
   114de:	01233023          	sd	s2,0(t1)
   114e2:	870ff06f          	j	10552 <_vfprintf_r+0x258>
   114e6:	6512                	ld	a0,256(sp)
   114e8:	65b2                	ld	a1,264(sp)
   114ea:	4601                	li	a2,0
   114ec:	4681                	li	a3,0
   114ee:	e41a                	sd	t1,8(sp)
   114f0:	631090ef          	jal	ra,1b320 <__letf2>
   114f4:	6322                	ld	t1,8(sp)
   114f6:	5a054a63          	bltz	a0,11aaa <_vfprintf_r+0x17b0>
   114fa:	0df14783          	lbu	a5,223(sp)
   114fe:	04700713          	li	a4,71
   11502:	0000bc97          	auipc	s9,0xb
   11506:	146c8c93          	addi	s9,s9,326 # 1c648 <__clzdi2+0x7a>
   1150a:	2bb74663          	blt	a4,s11,117b6 <_vfprintf_r+0x14bc>
   1150e:	f7f4f493          	andi	s1,s1,-129
   11512:	ec02                	sd	zero,24(sp)
   11514:	e882                	sd	zero,80(sp)
   11516:	f082                	sd	zero,96(sp)
   11518:	ec82                	sd	zero,88(sp)
   1151a:	2481                	sext.w	s1,s1
   1151c:	4a0d                	li	s4,3
   1151e:	4c0d                	li	s8,3
   11520:	4f01                	li	t5,0
   11522:	96079363          	bnez	a5,10688 <_vfprintf_r+0x38e>
   11526:	f91fe06f          	j	104b6 <_vfprintf_r+0x1bc>
   1152a:	76e6                	ld	a3,120(sp)
   1152c:	7746                	ld	a4,112(sp)
   1152e:	0341                	addi	t1,t1,16
   11530:	fed33823          	sd	a3,-16(t1)
   11534:	11812683          	lw	a3,280(sp)
   11538:	97ba                	add	a5,a5,a4
   1153a:	fee33c23          	sd	a4,-8(t1)
   1153e:	2685                	addiw	a3,a3,1
   11540:	0006871b          	sext.w	a4,a3
   11544:	10d12c23          	sw	a3,280(sp)
   11548:	f23e                	sd	a5,288(sp)
   1154a:	469d                	li	a3,7
   1154c:	2ee6cd63          	blt	a3,a4,11846 <_vfprintf_r+0x154c>
   11550:	68064e63          	bltz	a2,11bec <_vfprintf_r+0x18f2>
   11554:	7682                	ld	a3,32(sp)
   11556:	2705                	addiw	a4,a4,1
   11558:	10e12c23          	sw	a4,280(sp)
   1155c:	97b6                	add	a5,a5,a3
   1155e:	00d33423          	sd	a3,8(t1)
   11562:	01933023          	sd	s9,0(t1)
   11566:	0007069b          	sext.w	a3,a4
   1156a:	f23e                	sd	a5,288(sp)
   1156c:	471d                	li	a4,7
   1156e:	00d74463          	blt	a4,a3,11576 <_vfprintf_r+0x127c>
   11572:	ff1fe06f          	j	10562 <_vfprintf_r+0x268>
   11576:	c6eff06f          	j	109e4 <_vfprintf_r+0x6ea>
   1157a:	8566                	mv	a0,s9
   1157c:	e41a                	sd	t1,8(sp)
   1157e:	e836                	sd	a3,16(sp)
   11580:	73f040ef          	jal	ra,164be <strlen>
   11584:	00050c1b          	sext.w	s8,a0
   11588:	0df14783          	lbu	a5,223(sp)
   1158c:	fffc4a13          	not	s4,s8
   11590:	43fa5a13          	srai	s4,s4,0x3f
   11594:	ec02                	sd	zero,24(sp)
   11596:	e882                	sd	zero,80(sp)
   11598:	f082                	sd	zero,96(sp)
   1159a:	ec82                	sd	zero,88(sp)
   1159c:	6322                	ld	t1,8(sp)
   1159e:	018a7a33          	and	s4,s4,s8
   115a2:	4f01                	li	t5,0
   115a4:	8e079263          	bnez	a5,10688 <_vfprintf_r+0x38e>
   115a8:	f0ffe06f          	j	104b6 <_vfprintf_r+0x1bc>
   115ac:	20087793          	andi	a5,a6,512
   115b0:	26078463          	beqz	a5,11818 <_vfprintf_r+0x151e>
   115b4:	0ffa7a13          	zext.b	s4,s4
   115b8:	e83a                	sd	a4,16(sp)
   115ba:	4785                	li	a5,1
   115bc:	8f4ff06f          	j	106b0 <_vfprintf_r+0x3b6>
   115c0:	2004f793          	andi	a5,s1,512
   115c4:	24078463          	beqz	a5,1180c <_vfprintf_r+0x1512>
   115c8:	67c2                	ld	a5,16(sp)
   115ca:	00078a03          	lb	s4,0(a5)
   115ce:	87d2                	mv	a5,s4
   115d0:	876ff06f          	j	10646 <_vfprintf_r+0x34c>
   115d4:	2004f793          	andi	a5,s1,512
   115d8:	24078763          	beqz	a5,11826 <_vfprintf_r+0x152c>
   115dc:	0ffa7a13          	zext.b	s4,s4
   115e0:	b385                	j	11340 <_vfprintf_r+0x1046>
   115e2:	2004f793          	andi	a5,s1,512
   115e6:	20078e63          	beqz	a5,11802 <_vfprintf_r+0x1508>
   115ea:	0ffa7a13          	zext.b	s4,s4
   115ee:	8b6ff06f          	j	106a4 <_vfprintf_r+0x3aa>
   115f2:	67b2                	ld	a5,264(sp)
   115f4:	2407c463          	bltz	a5,1183c <_vfprintf_r+0x1542>
   115f8:	0df14783          	lbu	a5,223(sp)
   115fc:	04700713          	li	a4,71
   11600:	0000bc97          	auipc	s9,0xb
   11604:	058c8c93          	addi	s9,s9,88 # 1c658 <__clzdi2+0x8a>
   11608:	f1b753e3          	bge	a4,s11,1150e <_vfprintf_r+0x1214>
   1160c:	0000bc97          	auipc	s9,0xb
   11610:	054c8c93          	addi	s9,s9,84 # 1c660 <__clzdi2+0x92>
   11614:	bded                	j	1150e <_vfprintf_r+0x1214>
   11616:	0017069b          	addiw	a3,a4,1
   1161a:	97e2                	add	a5,a5,s8
   1161c:	01233023          	sd	s2,0(t1)
   11620:	01833423          	sd	s8,8(t1)
   11624:	f23e                	sd	a5,288(sp)
   11626:	10d12c23          	sw	a3,280(sp)
   1162a:	471d                	li	a4,7
   1162c:	0341                	addi	t1,t1,16
   1162e:	a6d751e3          	bge	a4,a3,11090 <_vfprintf_r+0xd96>
   11632:	0a10                	addi	a2,sp,272
   11634:	85ce                	mv	a1,s3
   11636:	8556                	mv	a0,s5
   11638:	3c1060ef          	jal	ra,181f8 <__sprint_r>
   1163c:	88051de3          	bnez	a0,10ed6 <_vfprintf_r+0xbdc>
   11640:	7792                	ld	a5,288(sp)
   11642:	835e                	mv	t1,s7
   11644:	b4b1                	j	11090 <_vfprintf_r+0xd96>
   11646:	7702                	ld	a4,32(sp)
   11648:	4c1d                	li	s8,7
   1164a:	9766                	add	a4,a4,s9
   1164c:	f83a                	sd	a4,48(sp)
   1164e:	7706                	ld	a4,96(sp)
   11650:	cb49                	beqz	a4,116e2 <_vfprintf_r+0x13e8>
   11652:	6746                	ld	a4,80(sp)
   11654:	eb51                	bnez	a4,116e8 <_vfprintf_r+0x13ee>
   11656:	7726                	ld	a4,104(sp)
   11658:	177d                	addi	a4,a4,-1
   1165a:	f4ba                	sd	a4,104(sp)
   1165c:	7706                	ld	a4,96(sp)
   1165e:	377d                	addiw	a4,a4,-1
   11660:	f0ba                	sd	a4,96(sp)
   11662:	674a                	ld	a4,144(sp)
   11664:	66aa                	ld	a3,136(sp)
   11666:	0341                	addi	t1,t1,16
   11668:	fee33823          	sd	a4,-16(t1)
   1166c:	11812703          	lw	a4,280(sp)
   11670:	97b6                	add	a5,a5,a3
   11672:	fed33c23          	sd	a3,-8(t1)
   11676:	2705                	addiw	a4,a4,1
   11678:	f23e                	sd	a5,288(sp)
   1167a:	0007069b          	sext.w	a3,a4
   1167e:	10e12c23          	sw	a4,280(sp)
   11682:	0cdc4e63          	blt	s8,a3,1175e <_vfprintf_r+0x1464>
   11686:	7726                	ld	a4,104(sp)
   11688:	00074603          	lbu	a2,0(a4)
   1168c:	7742                	ld	a4,48(sp)
   1168e:	41b705bb          	subw	a1,a4,s11
   11692:	0006071b          	sext.w	a4,a2
   11696:	0007069b          	sext.w	a3,a4
   1169a:	00e5d463          	bge	a1,a4,116a2 <_vfprintf_r+0x13a8>
   1169e:	0005869b          	sext.w	a3,a1
   116a2:	02d05663          	blez	a3,116ce <_vfprintf_r+0x13d4>
   116a6:	11812703          	lw	a4,280(sp)
   116aa:	97b6                	add	a5,a5,a3
   116ac:	01b33023          	sd	s11,0(t1)
   116b0:	0017061b          	addiw	a2,a4,1
   116b4:	00d33423          	sd	a3,8(t1)
   116b8:	f23e                	sd	a5,288(sp)
   116ba:	10c12c23          	sw	a2,280(sp)
   116be:	0acc4a63          	blt	s8,a2,11772 <_vfprintf_r+0x1478>
   116c2:	7726                	ld	a4,104(sp)
   116c4:	0341                	addi	t1,t1,16
   116c6:	00074603          	lbu	a2,0(a4)
   116ca:	0006071b          	sext.w	a4,a2
   116ce:	fff6c593          	not	a1,a3
   116d2:	95fd                	srai	a1,a1,0x3f
   116d4:	8eed                	and	a3,a3,a1
   116d6:	9f15                	subw	a4,a4,a3
   116d8:	00e04c63          	bgtz	a4,116f0 <_vfprintf_r+0x13f6>
   116dc:	9db2                	add	s11,s11,a2
   116de:	7706                	ld	a4,96(sp)
   116e0:	fb2d                	bnez	a4,11652 <_vfprintf_r+0x1358>
   116e2:	6746                	ld	a4,80(sp)
   116e4:	32070163          	beqz	a4,11a06 <_vfprintf_r+0x170c>
   116e8:	6746                	ld	a4,80(sp)
   116ea:	377d                	addiw	a4,a4,-1
   116ec:	e8ba                	sd	a4,80(sp)
   116ee:	bf95                	j	11662 <_vfprintf_r+0x1368>
   116f0:	11812683          	lw	a3,280(sp)
   116f4:	00ed4663          	blt	s10,a4,11700 <_vfprintf_r+0x1406>
   116f8:	a081                	j	11738 <_vfprintf_r+0x143e>
   116fa:	3741                	addiw	a4,a4,-16
   116fc:	02ed5e63          	bge	s10,a4,11738 <_vfprintf_r+0x143e>
   11700:	2685                	addiw	a3,a3,1
   11702:	07c1                	addi	a5,a5,16
   11704:	01233023          	sd	s2,0(t1)
   11708:	01a33423          	sd	s10,8(t1)
   1170c:	f23e                	sd	a5,288(sp)
   1170e:	10d12c23          	sw	a3,280(sp)
   11712:	0341                	addi	t1,t1,16
   11714:	fedc53e3          	bge	s8,a3,116fa <_vfprintf_r+0x1400>
   11718:	0a10                	addi	a2,sp,272
   1171a:	85ce                	mv	a1,s3
   1171c:	8556                	mv	a0,s5
   1171e:	e43a                	sd	a4,8(sp)
   11720:	2d9060ef          	jal	ra,181f8 <__sprint_r>
   11724:	fa051963          	bnez	a0,10ed6 <_vfprintf_r+0xbdc>
   11728:	6722                	ld	a4,8(sp)
   1172a:	7792                	ld	a5,288(sp)
   1172c:	11812683          	lw	a3,280(sp)
   11730:	3741                	addiw	a4,a4,-16
   11732:	835e                	mv	t1,s7
   11734:	fced46e3          	blt	s10,a4,11700 <_vfprintf_r+0x1406>
   11738:	2685                	addiw	a3,a3,1
   1173a:	97ba                	add	a5,a5,a4
   1173c:	00e33423          	sd	a4,8(t1)
   11740:	01233023          	sd	s2,0(t1)
   11744:	f23e                	sd	a5,288(sp)
   11746:	0006871b          	sext.w	a4,a3
   1174a:	10d12c23          	sw	a3,280(sp)
   1174e:	34ec4063          	blt	s8,a4,11a8e <_vfprintf_r+0x1794>
   11752:	7726                	ld	a4,104(sp)
   11754:	0341                	addi	t1,t1,16
   11756:	00074603          	lbu	a2,0(a4)
   1175a:	9db2                	add	s11,s11,a2
   1175c:	b749                	j	116de <_vfprintf_r+0x13e4>
   1175e:	0a10                	addi	a2,sp,272
   11760:	85ce                	mv	a1,s3
   11762:	8556                	mv	a0,s5
   11764:	295060ef          	jal	ra,181f8 <__sprint_r>
   11768:	f6051763          	bnez	a0,10ed6 <_vfprintf_r+0xbdc>
   1176c:	7792                	ld	a5,288(sp)
   1176e:	835e                	mv	t1,s7
   11770:	bf19                	j	11686 <_vfprintf_r+0x138c>
   11772:	0a10                	addi	a2,sp,272
   11774:	85ce                	mv	a1,s3
   11776:	8556                	mv	a0,s5
   11778:	e436                	sd	a3,8(sp)
   1177a:	27f060ef          	jal	ra,181f8 <__sprint_r>
   1177e:	f4051c63          	bnez	a0,10ed6 <_vfprintf_r+0xbdc>
   11782:	77a6                	ld	a5,104(sp)
   11784:	66a2                	ld	a3,8(sp)
   11786:	835e                	mv	t1,s7
   11788:	0007c603          	lbu	a2,0(a5)
   1178c:	7792                	ld	a5,288(sp)
   1178e:	0006071b          	sext.w	a4,a2
   11792:	bf35                	j	116ce <_vfprintf_r+0x13d4>
   11794:	2605                	addiw	a2,a2,1
   11796:	01070313          	addi	t1,a4,16
   1179a:	8c3a                	mv	s8,a4
   1179c:	a2cff06f          	j	109c8 <_vfprintf_r+0x6ce>
   117a0:	0a10                	addi	a2,sp,272
   117a2:	85ce                	mv	a1,s3
   117a4:	8556                	mv	a0,s5
   117a6:	253060ef          	jal	ra,181f8 <__sprint_r>
   117aa:	f2051663          	bnez	a0,10ed6 <_vfprintf_r+0xbdc>
   117ae:	562e                	lw	a2,232(sp)
   117b0:	7792                	ld	a5,288(sp)
   117b2:	835e                	mv	t1,s7
   117b4:	b1c9                	j	11476 <_vfprintf_r+0x117c>
   117b6:	0000bc97          	auipc	s9,0xb
   117ba:	e9ac8c93          	addi	s9,s9,-358 # 1c650 <__clzdi2+0x82>
   117be:	bb81                	j	1150e <_vfprintf_r+0x1214>
   117c0:	0a10                	addi	a2,sp,272
   117c2:	85ce                	mv	a1,s3
   117c4:	8556                	mv	a0,s5
   117c6:	233060ef          	jal	ra,181f8 <__sprint_r>
   117ca:	f0051663          	bnez	a0,10ed6 <_vfprintf_r+0xbdc>
   117ce:	7792                	ld	a5,288(sp)
   117d0:	835e                	mv	t1,s7
   117d2:	b06d                	j	1107c <_vfprintf_r+0xd82>
   117d4:	4c19                	li	s8,6
   117d6:	b6c5                	j	113b6 <_vfprintf_r+0x10bc>
   117d8:	7682                	ld	a3,32(sp)
   117da:	00dc8833          	add	a6,s9,a3
   117de:	40e6873b          	subw	a4,a3,a4
   117e2:	41b80ebb          	subw	t4,a6,s11
   117e6:	0007069b          	sext.w	a3,a4
   117ea:	00ded363          	bge	t4,a3,117f0 <_vfprintf_r+0x14f6>
   117ee:	8776                	mv	a4,t4
   117f0:	00070c9b          	sext.w	s9,a4
   117f4:	b205                	j	11114 <_vfprintf_r+0xe1a>
   117f6:	6782                	ld	a5,0(sp)
   117f8:	8ca2                	mv	s9,s0
   117fa:	00f71023          	sh	a5,0(a4)
   117fe:	d99fe06f          	j	10596 <_vfprintf_r+0x29c>
   11802:	1a02                	slli	s4,s4,0x20
   11804:	020a5a13          	srli	s4,s4,0x20
   11808:	e9dfe06f          	j	106a4 <_vfprintf_r+0x3aa>
   1180c:	67c2                	ld	a5,16(sp)
   1180e:	0007aa03          	lw	s4,0(a5)
   11812:	87d2                	mv	a5,s4
   11814:	e33fe06f          	j	10646 <_vfprintf_r+0x34c>
   11818:	1a02                	slli	s4,s4,0x20
   1181a:	020a5a13          	srli	s4,s4,0x20
   1181e:	e83a                	sd	a4,16(sp)
   11820:	4785                	li	a5,1
   11822:	e8ffe06f          	j	106b0 <_vfprintf_r+0x3b6>
   11826:	1a02                	slli	s4,s4,0x20
   11828:	020a5a13          	srli	s4,s4,0x20
   1182c:	be11                	j	11340 <_vfprintf_r+0x1046>
   1182e:	0a10                	addi	a2,sp,272
   11830:	85ce                	mv	a1,s3
   11832:	8556                	mv	a0,s5
   11834:	1c5060ef          	jal	ra,181f8 <__sprint_r>
   11838:	d6ffe06f          	j	105a6 <_vfprintf_r+0x2ac>
   1183c:	02d00793          	li	a5,45
   11840:	0cf10fa3          	sb	a5,223(sp)
   11844:	bb65                	j	115fc <_vfprintf_r+0x1302>
   11846:	0a10                	addi	a2,sp,272
   11848:	85ce                	mv	a1,s3
   1184a:	8556                	mv	a0,s5
   1184c:	1ad060ef          	jal	ra,181f8 <__sprint_r>
   11850:	e8051363          	bnez	a0,10ed6 <_vfprintf_r+0xbdc>
   11854:	562e                	lw	a2,232(sp)
   11856:	7792                	ld	a5,288(sp)
   11858:	11812703          	lw	a4,280(sp)
   1185c:	835e                	mv	t1,s7
   1185e:	b9cd                	j	11550 <_vfprintf_r+0x1256>
   11860:	03000793          	li	a5,48
   11864:	0ef10023          	sb	a5,224(sp)
   11868:	05800713          	li	a4,88
   1186c:	0024e793          	ori	a5,s1,2
   11870:	2781                	sext.w	a5,a5
   11872:	0ee100a3          	sb	a4,225(sp)
   11876:	f53e                	sd	a5,168(sp)
   11878:	06300713          	li	a4,99
   1187c:	ec02                	sd	zero,24(sp)
   1187e:	12810c93          	addi	s9,sp,296
   11882:	43e74263          	blt	a4,t5,11ca6 <_vfprintf_r+0x19ac>
   11886:	6a32                	ld	s4,264(sp)
   11888:	fdfdf793          	andi	a5,s11,-33
   1188c:	1024e493          	ori	s1,s1,258
   11890:	f0be                	sd	a5,96(sp)
   11892:	e582                	sd	zero,200(sp)
   11894:	6c12                	ld	s8,256(sp)
   11896:	2481                	sext.w	s1,s1
   11898:	1e0a4363          	bltz	s4,11a7e <_vfprintf_r+0x1784>
   1189c:	06100793          	li	a5,97
   118a0:	48fd8663          	beq	s11,a5,11d2c <_vfprintf_r+0x1a32>
   118a4:	04100793          	li	a5,65
   118a8:	00fd8463          	beq	s11,a5,118b0 <_vfprintf_r+0x15b6>
   118ac:	ee5fe06f          	j	10790 <_vfprintf_r+0x496>
   118b0:	85d2                	mv	a1,s4
   118b2:	8562                	mv	a0,s8
   118b4:	fc1a                	sd	t1,56(sp)
   118b6:	f87a                	sd	t5,48(sp)
   118b8:	2eb0a0ef          	jal	ra,1c3a2 <__trunctfdf2>
   118bc:	11a8                	addi	a0,sp,232
   118be:	091040ef          	jal	ra,1614e <frexp>
   118c2:	21f0a0ef          	jal	ra,1c2e0 <__extenddftf2>
   118c6:	0000b797          	auipc	a5,0xb
   118ca:	f9a78793          	addi	a5,a5,-102 # 1c860 <zeroes.0+0x38>
   118ce:	6390                	ld	a2,0(a5)
   118d0:	6794                	ld	a3,8(a5)
   118d2:	2f5090ef          	jal	ra,1b3c6 <__multf3>
   118d6:	4601                	li	a2,0
   118d8:	4681                	li	a3,0
   118da:	f02a                	sd	a0,32(sp)
   118dc:	e42e                	sd	a1,8(sp)
   118de:	109090ef          	jal	ra,1b1e6 <__eqtf2>
   118e2:	62a2                	ld	t0,8(sp)
   118e4:	7702                	ld	a4,32(sp)
   118e6:	7f42                	ld	t5,48(sp)
   118e8:	7362                	ld	t1,56(sp)
   118ea:	e119                	bnez	a0,118f0 <_vfprintf_r+0x15f6>
   118ec:	4785                	li	a5,1
   118ee:	d5be                	sw	a5,232(sp)
   118f0:	0000b797          	auipc	a5,0xb
   118f4:	d7878793          	addi	a5,a5,-648 # 1c668 <__clzdi2+0x9a>
   118f8:	e8be                	sd	a5,80(sp)
   118fa:	020f1793          	slli	a5,t5,0x20
   118fe:	0000b697          	auipc	a3,0xb
   11902:	f4268693          	addi	a3,a3,-190 # 1c840 <zeroes.0+0x18>
   11906:	9381                	srli	a5,a5,0x20
   11908:	6290                	ld	a2,0(a3)
   1190a:	0785                	addi	a5,a5,1
   1190c:	6694                	ld	a3,8(a3)
   1190e:	97e6                	add	a5,a5,s9
   11910:	ed3e                	sd	a5,152(sp)
   11912:	01ec87bb          	addw	a5,s9,t5
   11916:	fd32                	sd	a2,184(sp)
   11918:	e1b6                	sd	a3,192(sp)
   1191a:	8c66                	mv	s8,s9
   1191c:	db3e                	sw	a5,180(sp)
   1191e:	a831                	j	1193a <_vfprintf_r+0x1640>
   11920:	4601                	li	a2,0
   11922:	4681                	li	a3,0
   11924:	e4ae                	sd	a1,72(sp)
   11926:	e0aa                	sd	a0,64(sp)
   11928:	0bf090ef          	jal	ra,1b1e6 <__eqtf2>
   1192c:	6f86                	ld	t6,64(sp)
   1192e:	68a6                	ld	a7,72(sp)
   11930:	7f42                	ld	t5,48(sp)
   11932:	7362                	ld	t1,56(sp)
   11934:	82c6                	mv	t0,a7
   11936:	877e                	mv	a4,t6
   11938:	c135                	beqz	a0,1199c <_vfprintf_r+0x16a2>
   1193a:	766a                	ld	a2,184(sp)
   1193c:	668e                	ld	a3,192(sp)
   1193e:	853a                	mv	a0,a4
   11940:	8596                	mv	a1,t0
   11942:	fc1a                	sd	t1,56(sp)
   11944:	f87a                	sd	t5,48(sp)
   11946:	281090ef          	jal	ra,1b3c6 <__multf3>
   1194a:	e42e                	sd	a1,8(sp)
   1194c:	f02a                	sd	a0,32(sp)
   1194e:	0ab0a0ef          	jal	ra,1c1f8 <__fixtfsi>
   11952:	00050a1b          	sext.w	s4,a0
   11956:	8552                	mv	a0,s4
   11958:	1310a0ef          	jal	ra,1c288 <__floatsitf>
   1195c:	7882                	ld	a7,32(sp)
   1195e:	6722                	ld	a4,8(sp)
   11960:	862a                	mv	a2,a0
   11962:	86ae                	mv	a3,a1
   11964:	8546                	mv	a0,a7
   11966:	85ba                	mv	a1,a4
   11968:	0640a0ef          	jal	ra,1b9cc <__subtf3>
   1196c:	67c6                	ld	a5,80(sp)
   1196e:	f162                	sd	s8,160(sp)
   11970:	0c05                	addi	s8,s8,1
   11972:	01478733          	add	a4,a5,s4
   11976:	57da                	lw	a5,180(sp)
   11978:	00074703          	lbu	a4,0(a4)
   1197c:	f02a                	sd	a0,32(sp)
   1197e:	418787bb          	subw	a5,a5,s8
   11982:	ecbe                	sd	a5,88(sp)
   11984:	67ea                	ld	a5,152(sp)
   11986:	feec0fa3          	sb	a4,-1(s8)
   1198a:	e42e                	sd	a1,8(sp)
   1198c:	7f42                	ld	t5,48(sp)
   1198e:	7362                	ld	t1,56(sp)
   11990:	8faa                	mv	t6,a0
   11992:	88ae                	mv	a7,a1
   11994:	f98796e3          	bne	a5,s8,11920 <_vfprintf_r+0x1626>
   11998:	57fd                	li	a5,-1
   1199a:	ecbe                	sd	a5,88(sp)
   1199c:	0000b717          	auipc	a4,0xb
   119a0:	eb470713          	addi	a4,a4,-332 # 1c850 <zeroes.0+0x28>
   119a4:	6310                	ld	a2,0(a4)
   119a6:	6714                	ld	a3,8(a4)
   119a8:	857e                	mv	a0,t6
   119aa:	85c6                	mv	a1,a7
   119ac:	f01a                	sd	t1,32(sp)
   119ae:	e47a                	sd	t5,8(sp)
   119b0:	e4fe                	sd	t6,72(sp)
   119b2:	e0b2                	sd	a2,64(sp)
   119b4:	fc36                	sd	a3,56(sp)
   119b6:	f846                	sd	a7,48(sp)
   119b8:	0c3090ef          	jal	ra,1b27a <__getf2>
   119bc:	6f22                	ld	t5,8(sp)
   119be:	7302                	ld	t1,32(sp)
   119c0:	30a04163          	bgtz	a0,11cc2 <_vfprintf_r+0x19c8>
   119c4:	6fa6                	ld	t6,72(sp)
   119c6:	78c2                	ld	a7,48(sp)
   119c8:	6606                	ld	a2,64(sp)
   119ca:	76e2                	ld	a3,56(sp)
   119cc:	857e                	mv	a0,t6
   119ce:	85c6                	mv	a1,a7
   119d0:	017090ef          	jal	ra,1b1e6 <__eqtf2>
   119d4:	6f22                	ld	t5,8(sp)
   119d6:	7302                	ld	t1,32(sp)
   119d8:	e509                	bnez	a0,119e2 <_vfprintf_r+0x16e8>
   119da:	001a7a13          	andi	s4,s4,1
   119de:	2e0a1263          	bnez	s4,11cc2 <_vfprintf_r+0x19c8>
   119e2:	67e6                	ld	a5,88(sp)
   119e4:	03000693          	li	a3,48
   119e8:	0017871b          	addiw	a4,a5,1
   119ec:	9762                	add	a4,a4,s8
   119ee:	0007c763          	bltz	a5,119fc <_vfprintf_r+0x1702>
   119f2:	0c05                	addi	s8,s8,1
   119f4:	fedc0fa3          	sb	a3,-1(s8)
   119f8:	ff871de3          	bne	a4,s8,119f2 <_vfprintf_r+0x16f8>
   119fc:	419c07bb          	subw	a5,s8,s9
   11a00:	f03e                	sd	a5,32(sp)
   11a02:	debfe06f          	j	107ec <_vfprintf_r+0x4f2>
   11a06:	7702                	ld	a4,32(sp)
   11a08:	9766                	add	a4,a4,s9
   11a0a:	e9b77a63          	bgeu	a4,s11,1109e <_vfprintf_r+0xda4>
   11a0e:	8dba                	mv	s11,a4
   11a10:	e8eff06f          	j	1109e <_vfprintf_r+0xda4>
   11a14:	6766                	ld	a4,88(sp)
   11a16:	57f5                	li	a5,-3
   11a18:	00f74463          	blt	a4,a5,11a20 <_vfprintf_r+0x1726>
   11a1c:	00ef5863          	bge	t5,a4,11a2c <_vfprintf_r+0x1732>
   11a20:	3df9                	addiw	s11,s11,-2
   11a22:	fdfdf793          	andi	a5,s11,-33
   11a26:	f0be                	sd	a5,96(sp)
   11a28:	de5fe06f          	j	1080c <_vfprintf_r+0x512>
   11a2c:	6766                	ld	a4,88(sp)
   11a2e:	7782                	ld	a5,32(sp)
   11a30:	14f74863          	blt	a4,a5,11b80 <_vfprintf_r+0x1886>
   11a34:	77aa                	ld	a5,168(sp)
   11a36:	8c3a                	mv	s8,a4
   11a38:	8b85                	andi	a5,a5,1
   11a3a:	c781                	beqz	a5,11a42 <_vfprintf_r+0x1748>
   11a3c:	77c6                	ld	a5,112(sp)
   11a3e:	00e78c3b          	addw	s8,a5,a4
   11a42:	77aa                	ld	a5,168(sp)
   11a44:	4007f793          	andi	a5,a5,1024
   11a48:	c781                	beqz	a5,11a50 <_vfprintf_r+0x1756>
   11a4a:	67e6                	ld	a5,88(sp)
   11a4c:	32f04e63          	bgtz	a5,11d88 <_vfprintf_r+0x1a8e>
   11a50:	fffc4a13          	not	s4,s8
   11a54:	43fa5a13          	srai	s4,s4,0x3f
   11a58:	014c7a33          	and	s4,s8,s4
   11a5c:	2a01                	sext.w	s4,s4
   11a5e:	06700d93          	li	s11,103
   11a62:	e882                	sd	zero,80(sp)
   11a64:	f082                	sd	zero,96(sp)
   11a66:	e89fe06f          	j	108ee <_vfprintf_r+0x5f4>
   11a6a:	0df14783          	lbu	a5,223(sp)
   11a6e:	4f01                	li	t5,0
   11a70:	c399                	beqz	a5,11a76 <_vfprintf_r+0x177c>
   11a72:	c17fe06f          	j	10688 <_vfprintf_r+0x38e>
   11a76:	a41fe06f          	j	104b6 <_vfprintf_r+0x1bc>
   11a7a:	ec02                	sd	zero,24(sp)
   11a7c:	84be                	mv	s1,a5
   11a7e:	57fd                	li	a5,-1
   11a80:	17fe                	slli	a5,a5,0x3f
   11a82:	00fa4a33          	xor	s4,s4,a5
   11a86:	02d00793          	li	a5,45
   11a8a:	e5be                	sd	a5,200(sp)
   11a8c:	bd01                	j	1189c <_vfprintf_r+0x15a2>
   11a8e:	0a10                	addi	a2,sp,272
   11a90:	85ce                	mv	a1,s3
   11a92:	8556                	mv	a0,s5
   11a94:	764060ef          	jal	ra,181f8 <__sprint_r>
   11a98:	c2051f63          	bnez	a0,10ed6 <_vfprintf_r+0xbdc>
   11a9c:	77a6                	ld	a5,104(sp)
   11a9e:	835e                	mv	t1,s7
   11aa0:	0007c603          	lbu	a2,0(a5)
   11aa4:	7792                	ld	a5,288(sp)
   11aa6:	9db2                	add	s11,s11,a2
   11aa8:	b91d                	j	116de <_vfprintf_r+0x13e4>
   11aaa:	02d00793          	li	a5,45
   11aae:	0cf10fa3          	sb	a5,223(sp)
   11ab2:	b4b1                	j	114fe <_vfprintf_r+0x1204>
   11ab4:	0a10                	addi	a2,sp,272
   11ab6:	85ce                	mv	a1,s3
   11ab8:	8556                	mv	a0,s5
   11aba:	73e060ef          	jal	ra,181f8 <__sprint_r>
   11abe:	c0051c63          	bnez	a0,10ed6 <_vfprintf_r+0xbdc>
   11ac2:	572e                	lw	a4,232(sp)
   11ac4:	7792                	ld	a5,288(sp)
   11ac6:	835e                	mv	t1,s7
   11ac8:	e0cff06f          	j	110d4 <_vfprintf_r+0xdda>
   11acc:	877a                	mv	a4,t5
   11ace:	11bc                	addi	a5,sp,232
   11ad0:	0f810893          	addi	a7,sp,248
   11ad4:	0ec10813          	addi	a6,sp,236
   11ad8:	468d                	li	a3,3
   11ada:	85e2                	mv	a1,s8
   11adc:	8652                	mv	a2,s4
   11ade:	8556                	mv	a0,s5
   11ae0:	f01a                	sd	t1,32(sp)
   11ae2:	e47a                	sd	t5,8(sp)
   11ae4:	1c2020ef          	jal	ra,13ca6 <_ldtoa_r>
   11ae8:	00054703          	lbu	a4,0(a0)
   11aec:	03000793          	li	a5,48
   11af0:	6f22                	ld	t5,8(sp)
   11af2:	7302                	ld	t1,32(sp)
   11af4:	8caa                	mv	s9,a0
   11af6:	04f70763          	beq	a4,a5,11b44 <_vfprintf_r+0x184a>
   11afa:	57ae                	lw	a5,232(sp)
   11afc:	97fa                	add	a5,a5,t5
   11afe:	00fc8733          	add	a4,s9,a5
   11b02:	4601                	li	a2,0
   11b04:	4681                	li	a3,0
   11b06:	8562                	mv	a0,s8
   11b08:	85d2                	mv	a1,s4
   11b0a:	f83a                	sd	a4,48(sp)
   11b0c:	f01a                	sd	t1,32(sp)
   11b0e:	e47a                	sd	t5,8(sp)
   11b10:	6d6090ef          	jal	ra,1b1e6 <__eqtf2>
   11b14:	7742                	ld	a4,48(sp)
   11b16:	6f22                	ld	t5,8(sp)
   11b18:	7302                	ld	t1,32(sp)
   11b1a:	87ba                	mv	a5,a4
   11b1c:	e119                	bnez	a0,11b22 <_vfprintf_r+0x1828>
   11b1e:	cc9fe06f          	j	107e6 <_vfprintf_r+0x4ec>
   11b22:	77ee                	ld	a5,248(sp)
   11b24:	00e7e463          	bltu	a5,a4,11b2c <_vfprintf_r+0x1832>
   11b28:	cbffe06f          	j	107e6 <_vfprintf_r+0x4ec>
   11b2c:	03000613          	li	a2,48
   11b30:	00178693          	addi	a3,a5,1
   11b34:	fdb6                	sd	a3,248(sp)
   11b36:	00c78023          	sb	a2,0(a5)
   11b3a:	77ee                	ld	a5,248(sp)
   11b3c:	fee7eae3          	bltu	a5,a4,11b30 <_vfprintf_r+0x1836>
   11b40:	ca7fe06f          	j	107e6 <_vfprintf_r+0x4ec>
   11b44:	4601                	li	a2,0
   11b46:	4681                	li	a3,0
   11b48:	8562                	mv	a0,s8
   11b4a:	85d2                	mv	a1,s4
   11b4c:	f01a                	sd	t1,32(sp)
   11b4e:	e47a                	sd	t5,8(sp)
   11b50:	696090ef          	jal	ra,1b1e6 <__eqtf2>
   11b54:	6f22                	ld	t5,8(sp)
   11b56:	7302                	ld	t1,32(sp)
   11b58:	d14d                	beqz	a0,11afa <_vfprintf_r+0x1800>
   11b5a:	4705                	li	a4,1
   11b5c:	41e707bb          	subw	a5,a4,t5
   11b60:	d5be                	sw	a5,232(sp)
   11b62:	bf69                	j	11afc <_vfprintf_r+0x1802>
   11b64:	0df14783          	lbu	a5,223(sp)
   11b68:	e836                	sd	a3,16(sp)
   11b6a:	e882                	sd	zero,80(sp)
   11b6c:	f082                	sd	zero,96(sp)
   11b6e:	ec82                	sd	zero,88(sp)
   11b70:	8a7a                	mv	s4,t5
   11b72:	8c7a                	mv	s8,t5
   11b74:	4f01                	li	t5,0
   11b76:	c399                	beqz	a5,11b7c <_vfprintf_r+0x1882>
   11b78:	b11fe06f          	j	10688 <_vfprintf_r+0x38e>
   11b7c:	93bfe06f          	j	104b6 <_vfprintf_r+0x1bc>
   11b80:	7702                	ld	a4,32(sp)
   11b82:	77c6                	ld	a5,112(sp)
   11b84:	06700d93          	li	s11,103
   11b88:	00e78c3b          	addw	s8,a5,a4
   11b8c:	6766                	ld	a4,88(sp)
   11b8e:	2ae05563          	blez	a4,11e38 <_vfprintf_r+0x1b3e>
   11b92:	77aa                	ld	a5,168(sp)
   11b94:	4007f793          	andi	a5,a5,1024
   11b98:	1e079a63          	bnez	a5,11d8c <_vfprintf_r+0x1a92>
   11b9c:	fffc4a13          	not	s4,s8
   11ba0:	43fa5a13          	srai	s4,s4,0x3f
   11ba4:	014c7a33          	and	s4,s8,s4
   11ba8:	2a01                	sext.w	s4,s4
   11baa:	bd65                	j	11a62 <_vfprintf_r+0x1768>
   11bac:	77aa                	ld	a5,168(sp)
   11bae:	6766                	ld	a4,88(sp)
   11bb0:	8b85                	andi	a5,a5,1
   11bb2:	00ff67b3          	or	a5,t5,a5
   11bb6:	28e05f63          	blez	a4,11e54 <_vfprintf_r+0x1b5a>
   11bba:	1a079f63          	bnez	a5,11d78 <_vfprintf_r+0x1a7e>
   11bbe:	6c66                	ld	s8,88(sp)
   11bc0:	06600d93          	li	s11,102
   11bc4:	b7f9                	j	11b92 <_vfprintf_r+0x1898>
   11bc6:	0a10                	addi	a2,sp,272
   11bc8:	85ce                	mv	a1,s3
   11bca:	8556                	mv	a0,s5
   11bcc:	62c060ef          	jal	ra,181f8 <__sprint_r>
   11bd0:	b0051363          	bnez	a0,10ed6 <_vfprintf_r+0xbdc>
   11bd4:	56ae                	lw	a3,232(sp)
   11bd6:	7702                	ld	a4,32(sp)
   11bd8:	7792                	ld	a5,288(sp)
   11bda:	835e                	mv	t1,s7
   11bdc:	40d706bb          	subw	a3,a4,a3
   11be0:	d34ff06f          	j	11114 <_vfprintf_r+0xe1a>
   11be4:	57fd                	li	a5,-1
   11be6:	e03e                	sd	a5,0(sp)
   11be8:	9cdfe06f          	j	105b4 <_vfprintf_r+0x2ba>
   11bec:	56c1                	li	a3,-16
   11bee:	40c00c3b          	negw	s8,a2
   11bf2:	02d65f63          	bge	a2,a3,11c30 <_vfprintf_r+0x1936>
   11bf6:	4d9d                	li	s11,7
   11bf8:	a021                	j	11c00 <_vfprintf_r+0x1906>
   11bfa:	3c41                	addiw	s8,s8,-16
   11bfc:	038d5a63          	bge	s10,s8,11c30 <_vfprintf_r+0x1936>
   11c00:	2705                	addiw	a4,a4,1
   11c02:	07c1                	addi	a5,a5,16
   11c04:	01233023          	sd	s2,0(t1)
   11c08:	01a33423          	sd	s10,8(t1)
   11c0c:	f23e                	sd	a5,288(sp)
   11c0e:	10e12c23          	sw	a4,280(sp)
   11c12:	0341                	addi	t1,t1,16
   11c14:	feedd3e3          	bge	s11,a4,11bfa <_vfprintf_r+0x1900>
   11c18:	0a10                	addi	a2,sp,272
   11c1a:	85ce                	mv	a1,s3
   11c1c:	8556                	mv	a0,s5
   11c1e:	5da060ef          	jal	ra,181f8 <__sprint_r>
   11c22:	aa051a63          	bnez	a0,10ed6 <_vfprintf_r+0xbdc>
   11c26:	7792                	ld	a5,288(sp)
   11c28:	11812703          	lw	a4,280(sp)
   11c2c:	835e                	mv	t1,s7
   11c2e:	b7f1                	j	11bfa <_vfprintf_r+0x1900>
   11c30:	2705                	addiw	a4,a4,1
   11c32:	97e2                	add	a5,a5,s8
   11c34:	01233023          	sd	s2,0(t1)
   11c38:	01833423          	sd	s8,8(t1)
   11c3c:	f23e                	sd	a5,288(sp)
   11c3e:	10e12c23          	sw	a4,280(sp)
   11c42:	469d                	li	a3,7
   11c44:	86e6d2e3          	bge	a3,a4,114a8 <_vfprintf_r+0x11ae>
   11c48:	0a10                	addi	a2,sp,272
   11c4a:	85ce                	mv	a1,s3
   11c4c:	8556                	mv	a0,s5
   11c4e:	5aa060ef          	jal	ra,181f8 <__sprint_r>
   11c52:	a8051263          	bnez	a0,10ed6 <_vfprintf_r+0xbdc>
   11c56:	7792                	ld	a5,288(sp)
   11c58:	11812703          	lw	a4,280(sp)
   11c5c:	835e                	mv	t1,s7
   11c5e:	b8dd                	j	11554 <_vfprintf_r+0x125a>
   11c60:	01ec8733          	add	a4,s9,t5
   11c64:	bd79                	j	11b02 <_vfprintf_r+0x1808>
   11c66:	8826                	mv	a6,s1
   11c68:	a8eff06f          	j	10ef6 <_vfprintf_r+0xbfc>
   11c6c:	03000793          	li	a5,48
   11c70:	0ef10023          	sb	a5,224(sp)
   11c74:	07800713          	li	a4,120
   11c78:	bed5                	j	1186c <_vfprintf_r+0x1572>
   11c7a:	001f071b          	addiw	a4,t5,1
   11c7e:	0f810893          	addi	a7,sp,248
   11c82:	0ec10813          	addi	a6,sp,236
   11c86:	11bc                	addi	a5,sp,232
   11c88:	4689                	li	a3,2
   11c8a:	85e2                	mv	a1,s8
   11c8c:	8652                	mv	a2,s4
   11c8e:	8556                	mv	a0,s5
   11c90:	f81a                	sd	t1,48(sp)
   11c92:	f07a                	sd	t5,32(sp)
   11c94:	e43a                	sd	a4,8(sp)
   11c96:	010020ef          	jal	ra,13ca6 <_ldtoa_r>
   11c9a:	6722                	ld	a4,8(sp)
   11c9c:	8caa                	mv	s9,a0
   11c9e:	7f02                	ld	t5,32(sp)
   11ca0:	7342                	ld	t1,48(sp)
   11ca2:	9766                	add	a4,a4,s9
   11ca4:	bdb9                	j	11b02 <_vfprintf_r+0x1808>
   11ca6:	001f059b          	addiw	a1,t5,1
   11caa:	8556                	mv	a0,s5
   11cac:	ec1a                	sd	t1,24(sp)
   11cae:	e47a                	sd	t5,8(sp)
   11cb0:	0a8030ef          	jal	ra,14d58 <_malloc_r>
   11cb4:	6f22                	ld	t5,8(sp)
   11cb6:	6362                	ld	t1,24(sp)
   11cb8:	8caa                	mv	s9,a0
   11cba:	1e050c63          	beqz	a0,11eb2 <_vfprintf_r+0x1bb8>
   11cbe:	ec2a                	sd	a0,24(sp)
   11cc0:	b6d9                	j	11886 <_vfprintf_r+0x158c>
   11cc2:	778a                	ld	a5,160(sp)
   11cc4:	8762                	mv	a4,s8
   11cc6:	fdbe                	sd	a5,248(sp)
   11cc8:	67c6                	ld	a5,80(sp)
   11cca:	fffc4683          	lbu	a3,-1(s8)
   11cce:	00f7c603          	lbu	a2,15(a5)
   11cd2:	00d61e63          	bne	a2,a3,11cee <_vfprintf_r+0x19f4>
   11cd6:	03000593          	li	a1,48
   11cda:	feb70fa3          	sb	a1,-1(a4)
   11cde:	776e                	ld	a4,248(sp)
   11ce0:	fff70693          	addi	a3,a4,-1
   11ce4:	fdb6                	sd	a3,248(sp)
   11ce6:	fff74683          	lbu	a3,-1(a4)
   11cea:	fed608e3          	beq	a2,a3,11cda <_vfprintf_r+0x19e0>
   11cee:	0016861b          	addiw	a2,a3,1
   11cf2:	03900593          	li	a1,57
   11cf6:	0ff67613          	zext.b	a2,a2
   11cfa:	00b68563          	beq	a3,a1,11d04 <_vfprintf_r+0x1a0a>
   11cfe:	fec70fa3          	sb	a2,-1(a4)
   11d02:	b9ed                	j	119fc <_vfprintf_r+0x1702>
   11d04:	67c6                	ld	a5,80(sp)
   11d06:	00a7c603          	lbu	a2,10(a5)
   11d0a:	fec70fa3          	sb	a2,-1(a4)
   11d0e:	b1fd                	j	119fc <_vfprintf_r+0x1702>
   11d10:	c31c                	sw	a5,0(a4)
   11d12:	8ca2                	mv	s9,s0
   11d14:	883fe06f          	j	10596 <_vfprintf_r+0x29c>
   11d18:	000f0463          	beqz	t5,11d20 <_vfprintf_r+0x1a26>
   11d1c:	a5bfe06f          	j	10776 <_vfprintf_r+0x47c>
   11d20:	4f05                	li	t5,1
   11d22:	a55fe06f          	j	10776 <_vfprintf_r+0x47c>
   11d26:	4f19                	li	t5,6
   11d28:	a4ffe06f          	j	10776 <_vfprintf_r+0x47c>
   11d2c:	85d2                	mv	a1,s4
   11d2e:	8562                	mv	a0,s8
   11d30:	fc1a                	sd	t1,56(sp)
   11d32:	f87a                	sd	t5,48(sp)
   11d34:	66e0a0ef          	jal	ra,1c3a2 <__trunctfdf2>
   11d38:	11a8                	addi	a0,sp,232
   11d3a:	414040ef          	jal	ra,1614e <frexp>
   11d3e:	5a20a0ef          	jal	ra,1c2e0 <__extenddftf2>
   11d42:	0000b797          	auipc	a5,0xb
   11d46:	b1e78793          	addi	a5,a5,-1250 # 1c860 <zeroes.0+0x38>
   11d4a:	6390                	ld	a2,0(a5)
   11d4c:	6794                	ld	a3,8(a5)
   11d4e:	678090ef          	jal	ra,1b3c6 <__multf3>
   11d52:	4601                	li	a2,0
   11d54:	4681                	li	a3,0
   11d56:	f02a                	sd	a0,32(sp)
   11d58:	e42e                	sd	a1,8(sp)
   11d5a:	48c090ef          	jal	ra,1b1e6 <__eqtf2>
   11d5e:	62a2                	ld	t0,8(sp)
   11d60:	7702                	ld	a4,32(sp)
   11d62:	7f42                	ld	t5,48(sp)
   11d64:	7362                	ld	t1,56(sp)
   11d66:	e119                	bnez	a0,11d6c <_vfprintf_r+0x1a72>
   11d68:	4785                	li	a5,1
   11d6a:	d5be                	sw	a5,232(sp)
   11d6c:	0000b797          	auipc	a5,0xb
   11d70:	91478793          	addi	a5,a5,-1772 # 1c680 <__clzdi2+0xb2>
   11d74:	e8be                	sd	a5,80(sp)
   11d76:	b651                	j	118fa <_vfprintf_r+0x1600>
   11d78:	77c6                	ld	a5,112(sp)
   11d7a:	06600d93          	li	s11,102
   11d7e:	00e78c3b          	addw	s8,a5,a4
   11d82:	01ec0c3b          	addw	s8,s8,t5
   11d86:	b531                	j	11b92 <_vfprintf_r+0x1898>
   11d88:	06700d93          	li	s11,103
   11d8c:	77a6                	ld	a5,104(sp)
   11d8e:	0ff00713          	li	a4,255
   11d92:	e882                	sd	zero,80(sp)
   11d94:	0007c783          	lbu	a5,0(a5)
   11d98:	f082                	sd	zero,96(sp)
   11d9a:	02e78863          	beq	a5,a4,11dca <_vfprintf_r+0x1ad0>
   11d9e:	0ff00693          	li	a3,255
   11da2:	6666                	ld	a2,88(sp)
   11da4:	0007871b          	sext.w	a4,a5
   11da8:	02c7d163          	bge	a5,a2,11dca <_vfprintf_r+0x1ad0>
   11dac:	75a6                	ld	a1,104(sp)
   11dae:	40e6073b          	subw	a4,a2,a4
   11db2:	ecba                	sd	a4,88(sp)
   11db4:	0015c783          	lbu	a5,1(a1)
   11db8:	cf8d                	beqz	a5,11df2 <_vfprintf_r+0x1af8>
   11dba:	7706                	ld	a4,96(sp)
   11dbc:	2705                	addiw	a4,a4,1
   11dbe:	f0ba                	sd	a4,96(sp)
   11dc0:	00158713          	addi	a4,a1,1
   11dc4:	f4ba                	sd	a4,104(sp)
   11dc6:	fcd79ee3          	bne	a5,a3,11da2 <_vfprintf_r+0x1aa8>
   11dca:	6746                	ld	a4,80(sp)
   11dcc:	7786                	ld	a5,96(sp)
   11dce:	9fb9                	addw	a5,a5,a4
   11dd0:	672a                	ld	a4,136(sp)
   11dd2:	02e787bb          	mulw	a5,a5,a4
   11dd6:	018787bb          	addw	a5,a5,s8
   11dda:	00078c1b          	sext.w	s8,a5
   11dde:	fffc4a13          	not	s4,s8
   11de2:	43fa5a13          	srai	s4,s4,0x3f
   11de6:	0147f7b3          	and	a5,a5,s4
   11dea:	00078a1b          	sext.w	s4,a5
   11dee:	b01fe06f          	j	108ee <_vfprintf_r+0x5f4>
   11df2:	6746                	ld	a4,80(sp)
   11df4:	77a6                	ld	a5,104(sp)
   11df6:	2705                	addiw	a4,a4,1
   11df8:	0007c783          	lbu	a5,0(a5)
   11dfc:	e8ba                	sd	a4,80(sp)
   11dfe:	b7e1                	j	11dc6 <_vfprintf_r+0x1acc>
   11e00:	0f210713          	addi	a4,sp,242
   11e04:	e699                	bnez	a3,11e12 <_vfprintf_r+0x1b18>
   11e06:	03000713          	li	a4,48
   11e0a:	0ee10923          	sb	a4,242(sp)
   11e0e:	0f310713          	addi	a4,sp,243
   11e12:	0c14                	addi	a3,sp,528
   11e14:	0307879b          	addiw	a5,a5,48
   11e18:	40d706b3          	sub	a3,a4,a3
   11e1c:	00f70023          	sb	a5,0(a4)
   11e20:	1216879b          	addiw	a5,a3,289
   11e24:	e13e                	sd	a5,128(sp)
   11e26:	a8ffe06f          	j	108b4 <_vfprintf_r+0x5ba>
   11e2a:	772a                	ld	a4,168(sp)
   11e2c:	8b05                	andi	a4,a4,1
   11e2e:	e319                	bnez	a4,11e34 <_vfprintf_r+0x1b3a>
   11e30:	a9ffe06f          	j	108ce <_vfprintf_r+0x5d4>
   11e34:	a95fe06f          	j	108c8 <_vfprintf_r+0x5ce>
   11e38:	40ec07bb          	subw	a5,s8,a4
   11e3c:	2785                	addiw	a5,a5,1
   11e3e:	00078c1b          	sext.w	s8,a5
   11e42:	fffc4a13          	not	s4,s8
   11e46:	43fa5a13          	srai	s4,s4,0x3f
   11e4a:	0147f7b3          	and	a5,a5,s4
   11e4e:	00078a1b          	sext.w	s4,a5
   11e52:	b901                	j	11a62 <_vfprintf_r+0x1768>
   11e54:	e791                	bnez	a5,11e60 <_vfprintf_r+0x1b66>
   11e56:	4a05                	li	s4,1
   11e58:	06600d93          	li	s11,102
   11e5c:	4c05                	li	s8,1
   11e5e:	b111                	j	11a62 <_vfprintf_r+0x1768>
   11e60:	77c6                	ld	a5,112(sp)
   11e62:	06600d93          	li	s11,102
   11e66:	0017869b          	addiw	a3,a5,1
   11e6a:	01e686bb          	addw	a3,a3,t5
   11e6e:	00068c1b          	sext.w	s8,a3
   11e72:	fffc4a13          	not	s4,s8
   11e76:	43fa5a13          	srai	s4,s4,0x3f
   11e7a:	0146f6b3          	and	a3,a3,s4
   11e7e:	00068a1b          	sext.w	s4,a3
   11e82:	b6c5                	j	11a62 <_vfprintf_r+0x1768>
   11e84:	871a                	mv	a4,t1
   11e86:	c64ff06f          	j	112ea <_vfprintf_r+0xff0>
   11e8a:	66c2                	ld	a3,16(sp)
   11e8c:	429c                	lw	a5,0(a3)
   11e8e:	00868613          	addi	a2,a3,8
   11e92:	86be                	mv	a3,a5
   11e94:	0007d363          	bgez	a5,11e9a <_vfprintf_r+0x1ba0>
   11e98:	56fd                	li	a3,-1
   11e9a:	00144e83          	lbu	t4,1(s0)
   11e9e:	00068f1b          	sext.w	t5,a3
   11ea2:	e832                	sd	a2,16(sp)
   11ea4:	843a                	mv	s0,a4
   11ea6:	d90fe06f          	j	10436 <_vfprintf_r+0x13c>
   11eaa:	4789                	li	a5,2
   11eac:	e13e                	sd	a5,128(sp)
   11eae:	a07fe06f          	j	108b4 <_vfprintf_r+0x5ba>
   11eb2:	0109d783          	lhu	a5,16(s3)
   11eb6:	0407e793          	ori	a5,a5,64
   11eba:	00f99823          	sh	a5,16(s3)
   11ebe:	ee8fe06f          	j	105a6 <_vfprintf_r+0x2ac>
   11ec2:	877a                	mv	a4,t5
   11ec4:	9766                	add	a4,a4,s9
   11ec6:	b935                	j	11b02 <_vfprintf_r+0x1808>

0000000000011ec8 <vfprintf>:
   11ec8:	86b2                	mv	a3,a2
   11eca:	862e                	mv	a2,a1
   11ecc:	85aa                	mv	a1,a0
   11ece:	7581b503          	ld	a0,1880(gp) # 1f5f0 <_impure_ptr>
   11ed2:	c28fe06f          	j	102fa <_vfprintf_r>

0000000000011ed6 <__sbprintf>:
   11ed6:	0105d783          	lhu	a5,16(a1)
   11eda:	0ac5ae03          	lw	t3,172(a1)
   11ede:	0125d303          	lhu	t1,18(a1)
   11ee2:	0305b883          	ld	a7,48(a1)
   11ee6:	0405b803          	ld	a6,64(a1)
   11eea:	b3010113          	addi	sp,sp,-1232
   11eee:	9bf5                	andi	a5,a5,-3
   11ef0:	40000713          	li	a4,1024
   11ef4:	4c813023          	sd	s0,1216(sp)
   11ef8:	00f11823          	sh	a5,16(sp)
   11efc:	842e                	mv	s0,a1
   11efe:	191c                	addi	a5,sp,176
   11f00:	858a                	mv	a1,sp
   11f02:	4a913c23          	sd	s1,1208(sp)
   11f06:	4b213823          	sd	s2,1200(sp)
   11f0a:	4c113423          	sd	ra,1224(sp)
   11f0e:	892a                	mv	s2,a0
   11f10:	d772                	sw	t3,172(sp)
   11f12:	00611923          	sh	t1,18(sp)
   11f16:	f846                	sd	a7,48(sp)
   11f18:	e0c2                	sd	a6,64(sp)
   11f1a:	e03e                	sd	a5,0(sp)
   11f1c:	ec3e                	sd	a5,24(sp)
   11f1e:	c63a                	sw	a4,12(sp)
   11f20:	d03a                	sw	a4,32(sp)
   11f22:	d402                	sw	zero,40(sp)
   11f24:	bd6fe0ef          	jal	ra,102fa <_vfprintf_r>
   11f28:	84aa                	mv	s1,a0
   11f2a:	02055963          	bgez	a0,11f5c <__sbprintf+0x86>
   11f2e:	01015783          	lhu	a5,16(sp)
   11f32:	0407f793          	andi	a5,a5,64
   11f36:	c799                	beqz	a5,11f44 <__sbprintf+0x6e>
   11f38:	01045783          	lhu	a5,16(s0)
   11f3c:	0407e793          	ori	a5,a5,64
   11f40:	00f41823          	sh	a5,16(s0)
   11f44:	4c813083          	ld	ra,1224(sp)
   11f48:	4c013403          	ld	s0,1216(sp)
   11f4c:	4b013903          	ld	s2,1200(sp)
   11f50:	8526                	mv	a0,s1
   11f52:	4b813483          	ld	s1,1208(sp)
   11f56:	4d010113          	addi	sp,sp,1232
   11f5a:	8082                	ret
   11f5c:	858a                	mv	a1,sp
   11f5e:	854a                	mv	a0,s2
   11f60:	356000ef          	jal	ra,122b6 <_fflush_r>
   11f64:	d569                	beqz	a0,11f2e <__sbprintf+0x58>
   11f66:	54fd                	li	s1,-1
   11f68:	b7d9                	j	11f2e <__sbprintf+0x58>

0000000000011f6a <__swsetup_r>:
   11f6a:	1101                	addi	sp,sp,-32
   11f6c:	e822                	sd	s0,16(sp)
   11f6e:	e426                	sd	s1,8(sp)
   11f70:	ec06                	sd	ra,24(sp)
   11f72:	7581b783          	ld	a5,1880(gp) # 1f5f0 <_impure_ptr>
   11f76:	84aa                	mv	s1,a0
   11f78:	842e                	mv	s0,a1
   11f7a:	c399                	beqz	a5,11f80 <__swsetup_r+0x16>
   11f7c:	4bb8                	lw	a4,80(a5)
   11f7e:	cf21                	beqz	a4,11fd6 <__swsetup_r+0x6c>
   11f80:	01041703          	lh	a4,16(s0)
   11f84:	03071793          	slli	a5,a4,0x30
   11f88:	00877693          	andi	a3,a4,8
   11f8c:	93c1                	srli	a5,a5,0x30
   11f8e:	ceb9                	beqz	a3,11fec <__swsetup_r+0x82>
   11f90:	6c14                	ld	a3,24(s0)
   11f92:	cabd                	beqz	a3,12008 <__swsetup_r+0x9e>
   11f94:	0017f613          	andi	a2,a5,1
   11f98:	ce11                	beqz	a2,11fb4 <__swsetup_r+0x4a>
   11f9a:	5010                	lw	a2,32(s0)
   11f9c:	00042623          	sw	zero,12(s0)
   11fa0:	4501                	li	a0,0
   11fa2:	40c0063b          	negw	a2,a2
   11fa6:	d410                	sw	a2,40(s0)
   11fa8:	ce91                	beqz	a3,11fc4 <__swsetup_r+0x5a>
   11faa:	60e2                	ld	ra,24(sp)
   11fac:	6442                	ld	s0,16(sp)
   11fae:	64a2                	ld	s1,8(sp)
   11fb0:	6105                	addi	sp,sp,32
   11fb2:	8082                	ret
   11fb4:	0027f613          	andi	a2,a5,2
   11fb8:	4581                	li	a1,0
   11fba:	e211                	bnez	a2,11fbe <__swsetup_r+0x54>
   11fbc:	500c                	lw	a1,32(s0)
   11fbe:	c44c                	sw	a1,12(s0)
   11fc0:	4501                	li	a0,0
   11fc2:	f6e5                	bnez	a3,11faa <__swsetup_r+0x40>
   11fc4:	0807f793          	andi	a5,a5,128
   11fc8:	d3ed                	beqz	a5,11faa <__swsetup_r+0x40>
   11fca:	04076713          	ori	a4,a4,64
   11fce:	00e41823          	sh	a4,16(s0)
   11fd2:	557d                	li	a0,-1
   11fd4:	bfd9                	j	11faa <__swsetup_r+0x40>
   11fd6:	853e                	mv	a0,a5
   11fd8:	5ca000ef          	jal	ra,125a2 <__sinit>
   11fdc:	01041703          	lh	a4,16(s0)
   11fe0:	03071793          	slli	a5,a4,0x30
   11fe4:	00877693          	andi	a3,a4,8
   11fe8:	93c1                	srli	a5,a5,0x30
   11fea:	f2dd                	bnez	a3,11f90 <__swsetup_r+0x26>
   11fec:	0107f693          	andi	a3,a5,16
   11ff0:	c2ad                	beqz	a3,12052 <__swsetup_r+0xe8>
   11ff2:	8b91                	andi	a5,a5,4
   11ff4:	eb9d                	bnez	a5,1202a <__swsetup_r+0xc0>
   11ff6:	6c14                	ld	a3,24(s0)
   11ff8:	00876713          	ori	a4,a4,8
   11ffc:	03071793          	slli	a5,a4,0x30
   12000:	00e41823          	sh	a4,16(s0)
   12004:	93c1                	srli	a5,a5,0x30
   12006:	f6d9                	bnez	a3,11f94 <__swsetup_r+0x2a>
   12008:	2807f613          	andi	a2,a5,640
   1200c:	20000593          	li	a1,512
   12010:	f8b602e3          	beq	a2,a1,11f94 <__swsetup_r+0x2a>
   12014:	85a2                	mv	a1,s0
   12016:	8526                	mv	a0,s1
   12018:	3a9020ef          	jal	ra,14bc0 <__smakebuf_r>
   1201c:	01041703          	lh	a4,16(s0)
   12020:	6c14                	ld	a3,24(s0)
   12022:	03071793          	slli	a5,a4,0x30
   12026:	93c1                	srli	a5,a5,0x30
   12028:	b7b5                	j	11f94 <__swsetup_r+0x2a>
   1202a:	6c2c                	ld	a1,88(s0)
   1202c:	cd81                	beqz	a1,12044 <__swsetup_r+0xda>
   1202e:	07440793          	addi	a5,s0,116
   12032:	00f58763          	beq	a1,a5,12040 <__swsetup_r+0xd6>
   12036:	8526                	mv	a0,s1
   12038:	6a4000ef          	jal	ra,126dc <_free_r>
   1203c:	01041703          	lh	a4,16(s0)
   12040:	04043c23          	sd	zero,88(s0)
   12044:	6c14                	ld	a3,24(s0)
   12046:	fdb77713          	andi	a4,a4,-37
   1204a:	00042423          	sw	zero,8(s0)
   1204e:	e014                	sd	a3,0(s0)
   12050:	b765                	j	11ff8 <__swsetup_r+0x8e>
   12052:	47a5                	li	a5,9
   12054:	c09c                	sw	a5,0(s1)
   12056:	04076713          	ori	a4,a4,64
   1205a:	00e41823          	sh	a4,16(s0)
   1205e:	557d                	li	a0,-1
   12060:	b7a9                	j	11faa <__swsetup_r+0x40>

0000000000012062 <__call_exitprocs>:
   12062:	715d                	addi	sp,sp,-80
   12064:	f052                	sd	s4,32(sp)
   12066:	7401ba03          	ld	s4,1856(gp) # 1f5d8 <_global_impure_ptr>
   1206a:	f84a                	sd	s2,48(sp)
   1206c:	1f8a3903          	ld	s2,504(s4)
   12070:	e486                	sd	ra,72(sp)
   12072:	e0a2                	sd	s0,64(sp)
   12074:	fc26                	sd	s1,56(sp)
   12076:	f44e                	sd	s3,40(sp)
   12078:	ec56                	sd	s5,24(sp)
   1207a:	e85a                	sd	s6,16(sp)
   1207c:	e45e                	sd	s7,8(sp)
   1207e:	e062                	sd	s8,0(sp)
   12080:	02090863          	beqz	s2,120b0 <__call_exitprocs+0x4e>
   12084:	8b2a                	mv	s6,a0
   12086:	8bae                	mv	s7,a1
   12088:	4a85                	li	s5,1
   1208a:	59fd                	li	s3,-1
   1208c:	00892483          	lw	s1,8(s2)
   12090:	fff4841b          	addiw	s0,s1,-1
   12094:	00044e63          	bltz	s0,120b0 <__call_exitprocs+0x4e>
   12098:	048e                	slli	s1,s1,0x3
   1209a:	94ca                	add	s1,s1,s2
   1209c:	020b8663          	beqz	s7,120c8 <__call_exitprocs+0x66>
   120a0:	2084b783          	ld	a5,520(s1)
   120a4:	03778263          	beq	a5,s7,120c8 <__call_exitprocs+0x66>
   120a8:	347d                	addiw	s0,s0,-1
   120aa:	14e1                	addi	s1,s1,-8
   120ac:	ff3418e3          	bne	s0,s3,1209c <__call_exitprocs+0x3a>
   120b0:	60a6                	ld	ra,72(sp)
   120b2:	6406                	ld	s0,64(sp)
   120b4:	74e2                	ld	s1,56(sp)
   120b6:	7942                	ld	s2,48(sp)
   120b8:	79a2                	ld	s3,40(sp)
   120ba:	7a02                	ld	s4,32(sp)
   120bc:	6ae2                	ld	s5,24(sp)
   120be:	6b42                	ld	s6,16(sp)
   120c0:	6ba2                	ld	s7,8(sp)
   120c2:	6c02                	ld	s8,0(sp)
   120c4:	6161                	addi	sp,sp,80
   120c6:	8082                	ret
   120c8:	00892783          	lw	a5,8(s2)
   120cc:	6498                	ld	a4,8(s1)
   120ce:	37fd                	addiw	a5,a5,-1
   120d0:	04878463          	beq	a5,s0,12118 <__call_exitprocs+0xb6>
   120d4:	0004b423          	sd	zero,8(s1)
   120d8:	db61                	beqz	a4,120a8 <__call_exitprocs+0x46>
   120da:	31092783          	lw	a5,784(s2)
   120de:	008a96bb          	sllw	a3,s5,s0
   120e2:	00892c03          	lw	s8,8(s2)
   120e6:	8ff5                	and	a5,a5,a3
   120e8:	2781                	sext.w	a5,a5
   120ea:	ef89                	bnez	a5,12104 <__call_exitprocs+0xa2>
   120ec:	9702                	jalr	a4
   120ee:	00892703          	lw	a4,8(s2)
   120f2:	1f8a3783          	ld	a5,504(s4)
   120f6:	01871463          	bne	a4,s8,120fe <__call_exitprocs+0x9c>
   120fa:	fb2787e3          	beq	a5,s2,120a8 <__call_exitprocs+0x46>
   120fe:	dbcd                	beqz	a5,120b0 <__call_exitprocs+0x4e>
   12100:	893e                	mv	s2,a5
   12102:	b769                	j	1208c <__call_exitprocs+0x2a>
   12104:	31492783          	lw	a5,788(s2)
   12108:	1084b583          	ld	a1,264(s1)
   1210c:	8ff5                	and	a5,a5,a3
   1210e:	2781                	sext.w	a5,a5
   12110:	e799                	bnez	a5,1211e <__call_exitprocs+0xbc>
   12112:	855a                	mv	a0,s6
   12114:	9702                	jalr	a4
   12116:	bfe1                	j	120ee <__call_exitprocs+0x8c>
   12118:	00892423          	sw	s0,8(s2)
   1211c:	bf75                	j	120d8 <__call_exitprocs+0x76>
   1211e:	852e                	mv	a0,a1
   12120:	9702                	jalr	a4
   12122:	b7f1                	j	120ee <__call_exitprocs+0x8c>

0000000000012124 <__sflush_r>:
   12124:	01059783          	lh	a5,16(a1)
   12128:	7179                	addi	sp,sp,-48
   1212a:	f022                	sd	s0,32(sp)
   1212c:	e44e                	sd	s3,8(sp)
   1212e:	f406                	sd	ra,40(sp)
   12130:	ec26                	sd	s1,24(sp)
   12132:	e84a                	sd	s2,16(sp)
   12134:	0087f693          	andi	a3,a5,8
   12138:	842e                	mv	s0,a1
   1213a:	89aa                	mv	s3,a0
   1213c:	ead5                	bnez	a3,121f0 <__sflush_r+0xcc>
   1213e:	6705                	lui	a4,0x1
   12140:	80070713          	addi	a4,a4,-2048 # 800 <done+0x7c0>
   12144:	4594                	lw	a3,8(a1)
   12146:	8fd9                	or	a5,a5,a4
   12148:	00f59823          	sh	a5,16(a1)
   1214c:	10d05063          	blez	a3,1224c <__sflush_r+0x128>
   12150:	6438                	ld	a4,72(s0)
   12152:	c759                	beqz	a4,121e0 <__sflush_r+0xbc>
   12154:	17c2                	slli	a5,a5,0x30
   12156:	93c1                	srli	a5,a5,0x30
   12158:	6685                	lui	a3,0x1
   1215a:	0009a483          	lw	s1,0(s3)
   1215e:	8efd                	and	a3,a3,a5
   12160:	0009a023          	sw	zero,0(s3)
   12164:	780c                	ld	a1,48(s0)
   12166:	e6fd                	bnez	a3,12254 <__sflush_r+0x130>
   12168:	4601                	li	a2,0
   1216a:	4685                	li	a3,1
   1216c:	854e                	mv	a0,s3
   1216e:	9702                	jalr	a4
   12170:	57fd                	li	a5,-1
   12172:	862a                	mv	a2,a0
   12174:	10f50763          	beq	a0,a5,12282 <__sflush_r+0x15e>
   12178:	01045783          	lhu	a5,16(s0)
   1217c:	6438                	ld	a4,72(s0)
   1217e:	780c                	ld	a1,48(s0)
   12180:	8b91                	andi	a5,a5,4
   12182:	c799                	beqz	a5,12190 <__sflush_r+0x6c>
   12184:	4414                	lw	a3,8(s0)
   12186:	6c3c                	ld	a5,88(s0)
   12188:	8e15                	sub	a2,a2,a3
   1218a:	c399                	beqz	a5,12190 <__sflush_r+0x6c>
   1218c:	583c                	lw	a5,112(s0)
   1218e:	8e1d                	sub	a2,a2,a5
   12190:	4681                	li	a3,0
   12192:	854e                	mv	a0,s3
   12194:	9702                	jalr	a4
   12196:	57fd                	li	a5,-1
   12198:	0cf51063          	bne	a0,a5,12258 <__sflush_r+0x134>
   1219c:	0009a703          	lw	a4,0(s3)
   121a0:	01041783          	lh	a5,16(s0)
   121a4:	cf6d                	beqz	a4,1229e <__sflush_r+0x17a>
   121a6:	46f5                	li	a3,29
   121a8:	00d70563          	beq	a4,a3,121b2 <__sflush_r+0x8e>
   121ac:	46d9                	li	a3,22
   121ae:	0ed71e63          	bne	a4,a3,122aa <__sflush_r+0x186>
   121b2:	6c14                	ld	a3,24(s0)
   121b4:	777d                	lui	a4,0xfffff
   121b6:	7ff70713          	addi	a4,a4,2047 # fffffffffffff7ff <__BSS_END__+0xfffffffffffe0167>
   121ba:	8ff9                	and	a5,a5,a4
   121bc:	00f41823          	sh	a5,16(s0)
   121c0:	00042423          	sw	zero,8(s0)
   121c4:	e014                	sd	a3,0(s0)
   121c6:	6c2c                	ld	a1,88(s0)
   121c8:	0099a023          	sw	s1,0(s3)
   121cc:	c991                	beqz	a1,121e0 <__sflush_r+0xbc>
   121ce:	07440793          	addi	a5,s0,116
   121d2:	00f58563          	beq	a1,a5,121dc <__sflush_r+0xb8>
   121d6:	854e                	mv	a0,s3
   121d8:	504000ef          	jal	ra,126dc <_free_r>
   121dc:	04043c23          	sd	zero,88(s0)
   121e0:	4501                	li	a0,0
   121e2:	70a2                	ld	ra,40(sp)
   121e4:	7402                	ld	s0,32(sp)
   121e6:	64e2                	ld	s1,24(sp)
   121e8:	6942                	ld	s2,16(sp)
   121ea:	69a2                	ld	s3,8(sp)
   121ec:	6145                	addi	sp,sp,48
   121ee:	8082                	ret
   121f0:	0185b903          	ld	s2,24(a1)
   121f4:	fe0906e3          	beqz	s2,121e0 <__sflush_r+0xbc>
   121f8:	6184                	ld	s1,0(a1)
   121fa:	03079713          	slli	a4,a5,0x30
   121fe:	9341                	srli	a4,a4,0x30
   12200:	8b0d                	andi	a4,a4,3
   12202:	0125b023          	sd	s2,0(a1)
   12206:	412484bb          	subw	s1,s1,s2
   1220a:	4781                	li	a5,0
   1220c:	e311                	bnez	a4,12210 <__sflush_r+0xec>
   1220e:	519c                	lw	a5,32(a1)
   12210:	c45c                	sw	a5,12(s0)
   12212:	00904663          	bgtz	s1,1221e <__sflush_r+0xfa>
   12216:	b7e9                	j	121e0 <__sflush_r+0xbc>
   12218:	992a                	add	s2,s2,a0
   1221a:	fc9053e3          	blez	s1,121e0 <__sflush_r+0xbc>
   1221e:	603c                	ld	a5,64(s0)
   12220:	780c                	ld	a1,48(s0)
   12222:	86a6                	mv	a3,s1
   12224:	864a                	mv	a2,s2
   12226:	854e                	mv	a0,s3
   12228:	9782                	jalr	a5
   1222a:	9c89                	subw	s1,s1,a0
   1222c:	fea046e3          	bgtz	a0,12218 <__sflush_r+0xf4>
   12230:	01045783          	lhu	a5,16(s0)
   12234:	70a2                	ld	ra,40(sp)
   12236:	64e2                	ld	s1,24(sp)
   12238:	0407e793          	ori	a5,a5,64
   1223c:	00f41823          	sh	a5,16(s0)
   12240:	7402                	ld	s0,32(sp)
   12242:	6942                	ld	s2,16(sp)
   12244:	69a2                	ld	s3,8(sp)
   12246:	557d                	li	a0,-1
   12248:	6145                	addi	sp,sp,48
   1224a:	8082                	ret
   1224c:	59b8                	lw	a4,112(a1)
   1224e:	f0e041e3          	bgtz	a4,12150 <__sflush_r+0x2c>
   12252:	b779                	j	121e0 <__sflush_r+0xbc>
   12254:	6850                	ld	a2,144(s0)
   12256:	b72d                	j	12180 <__sflush_r+0x5c>
   12258:	01045783          	lhu	a5,16(s0)
   1225c:	777d                	lui	a4,0xfffff
   1225e:	7ff70713          	addi	a4,a4,2047 # fffffffffffff7ff <__BSS_END__+0xfffffffffffe0167>
   12262:	8ff9                	and	a5,a5,a4
   12264:	6c14                	ld	a3,24(s0)
   12266:	0107979b          	slliw	a5,a5,0x10
   1226a:	4107d79b          	sraiw	a5,a5,0x10
   1226e:	6705                	lui	a4,0x1
   12270:	00f41823          	sh	a5,16(s0)
   12274:	00042423          	sw	zero,8(s0)
   12278:	e014                	sd	a3,0(s0)
   1227a:	8ff9                	and	a5,a5,a4
   1227c:	d7a9                	beqz	a5,121c6 <__sflush_r+0xa2>
   1227e:	e848                	sd	a0,144(s0)
   12280:	b799                	j	121c6 <__sflush_r+0xa2>
   12282:	0009a783          	lw	a5,0(s3)
   12286:	ee0789e3          	beqz	a5,12178 <__sflush_r+0x54>
   1228a:	4775                	li	a4,29
   1228c:	00e78563          	beq	a5,a4,12296 <__sflush_r+0x172>
   12290:	4759                	li	a4,22
   12292:	f8e79fe3          	bne	a5,a4,12230 <__sflush_r+0x10c>
   12296:	0099a023          	sw	s1,0(s3)
   1229a:	4501                	li	a0,0
   1229c:	b799                	j	121e2 <__sflush_r+0xbe>
   1229e:	777d                	lui	a4,0xfffff
   122a0:	7ff70713          	addi	a4,a4,2047 # fffffffffffff7ff <__BSS_END__+0xfffffffffffe0167>
   122a4:	6c14                	ld	a3,24(s0)
   122a6:	8ff9                	and	a5,a5,a4
   122a8:	b7d9                	j	1226e <__sflush_r+0x14a>
   122aa:	0407e793          	ori	a5,a5,64
   122ae:	00f41823          	sh	a5,16(s0)
   122b2:	557d                	li	a0,-1
   122b4:	b73d                	j	121e2 <__sflush_r+0xbe>

00000000000122b6 <_fflush_r>:
   122b6:	1101                	addi	sp,sp,-32
   122b8:	e822                	sd	s0,16(sp)
   122ba:	ec06                	sd	ra,24(sp)
   122bc:	842a                	mv	s0,a0
   122be:	c119                	beqz	a0,122c4 <_fflush_r+0xe>
   122c0:	493c                	lw	a5,80(a0)
   122c2:	cb89                	beqz	a5,122d4 <_fflush_r+0x1e>
   122c4:	01059783          	lh	a5,16(a1)
   122c8:	ef89                	bnez	a5,122e2 <_fflush_r+0x2c>
   122ca:	60e2                	ld	ra,24(sp)
   122cc:	6442                	ld	s0,16(sp)
   122ce:	4501                	li	a0,0
   122d0:	6105                	addi	sp,sp,32
   122d2:	8082                	ret
   122d4:	e42e                	sd	a1,8(sp)
   122d6:	2cc000ef          	jal	ra,125a2 <__sinit>
   122da:	65a2                	ld	a1,8(sp)
   122dc:	01059783          	lh	a5,16(a1)
   122e0:	d7ed                	beqz	a5,122ca <_fflush_r+0x14>
   122e2:	8522                	mv	a0,s0
   122e4:	6442                	ld	s0,16(sp)
   122e6:	60e2                	ld	ra,24(sp)
   122e8:	6105                	addi	sp,sp,32
   122ea:	bd2d                	j	12124 <__sflush_r>

00000000000122ec <fflush>:
   122ec:	cd1d                	beqz	a0,1232a <fflush+0x3e>
   122ee:	1101                	addi	sp,sp,-32
   122f0:	e822                	sd	s0,16(sp)
   122f2:	ec06                	sd	ra,24(sp)
   122f4:	842a                	mv	s0,a0
   122f6:	7581b503          	ld	a0,1880(gp) # 1f5f0 <_impure_ptr>
   122fa:	c119                	beqz	a0,12300 <fflush+0x14>
   122fc:	493c                	lw	a5,80(a0)
   122fe:	cf91                	beqz	a5,1231a <fflush+0x2e>
   12300:	01041783          	lh	a5,16(s0)
   12304:	e791                	bnez	a5,12310 <fflush+0x24>
   12306:	60e2                	ld	ra,24(sp)
   12308:	6442                	ld	s0,16(sp)
   1230a:	4501                	li	a0,0
   1230c:	6105                	addi	sp,sp,32
   1230e:	8082                	ret
   12310:	85a2                	mv	a1,s0
   12312:	6442                	ld	s0,16(sp)
   12314:	60e2                	ld	ra,24(sp)
   12316:	6105                	addi	sp,sp,32
   12318:	b531                	j	12124 <__sflush_r>
   1231a:	e42a                	sd	a0,8(sp)
   1231c:	286000ef          	jal	ra,125a2 <__sinit>
   12320:	01041783          	lh	a5,16(s0)
   12324:	6522                	ld	a0,8(sp)
   12326:	d3e5                	beqz	a5,12306 <fflush+0x1a>
   12328:	b7e5                	j	12310 <fflush+0x24>
   1232a:	00000597          	auipc	a1,0x0
   1232e:	f8c58593          	addi	a1,a1,-116 # 122b6 <_fflush_r>
   12332:	7401b503          	ld	a0,1856(gp) # 1f5d8 <_global_impure_ptr>
   12336:	ada5                	j	129ae <_fwalk_reent>

0000000000012338 <__fp_lock>:
   12338:	4501                	li	a0,0
   1233a:	8082                	ret

000000000001233c <_cleanup_r>:
   1233c:	00007597          	auipc	a1,0x7
   12340:	dc858593          	addi	a1,a1,-568 # 19104 <_fclose_r>
   12344:	a5ad                	j	129ae <_fwalk_reent>

0000000000012346 <__fp_unlock>:
   12346:	4501                	li	a0,0
   12348:	8082                	ret

000000000001234a <__sinit.part.0>:
   1234a:	7139                	addi	sp,sp,-64
   1234c:	fc06                	sd	ra,56(sp)
   1234e:	f822                	sd	s0,48(sp)
   12350:	f426                	sd	s1,40(sp)
   12352:	f04a                	sd	s2,32(sp)
   12354:	ec4e                	sd	s3,24(sp)
   12356:	e852                	sd	s4,16(sp)
   12358:	e456                	sd	s5,8(sp)
   1235a:	e05a                	sd	s6,0(sp)
   1235c:	6500                	ld	s0,8(a0)
   1235e:	00000717          	auipc	a4,0x0
   12362:	fde70713          	addi	a4,a4,-34 # 1233c <_cleanup_r>
   12366:	ed38                	sd	a4,88(a0)
   12368:	53850793          	addi	a5,a0,1336
   1236c:	470d                	li	a4,3
   1236e:	52e52423          	sw	a4,1320(a0)
   12372:	52f53823          	sd	a5,1328(a0)
   12376:	52053023          	sd	zero,1312(a0)
   1237a:	4791                	li	a5,4
   1237c:	892a                	mv	s2,a0
   1237e:	c81c                	sw	a5,16(s0)
   12380:	4621                	li	a2,8
   12382:	4581                	li	a1,0
   12384:	0a042623          	sw	zero,172(s0)
   12388:	00043023          	sd	zero,0(s0)
   1238c:	00043423          	sd	zero,8(s0)
   12390:	00043c23          	sd	zero,24(s0)
   12394:	02042023          	sw	zero,32(s0)
   12398:	02042423          	sw	zero,40(s0)
   1239c:	0a440513          	addi	a0,s0,164
   123a0:	e63fd0ef          	jal	ra,10202 <memset>
   123a4:	01093483          	ld	s1,16(s2)
   123a8:	00004b17          	auipc	s6,0x4
   123ac:	eb2b0b13          	addi	s6,s6,-334 # 1625a <__sread>
   123b0:	00004a97          	auipc	s5,0x4
   123b4:	ee6a8a93          	addi	s5,s5,-282 # 16296 <__swrite>
   123b8:	00004a17          	auipc	s4,0x4
   123bc:	f32a0a13          	addi	s4,s4,-206 # 162ea <__sseek>
   123c0:	00004997          	auipc	s3,0x4
   123c4:	f6c98993          	addi	s3,s3,-148 # 1632c <__sclose>
   123c8:	67c1                	lui	a5,0x10
   123ca:	03643c23          	sd	s6,56(s0)
   123ce:	05543023          	sd	s5,64(s0)
   123d2:	05443423          	sd	s4,72(s0)
   123d6:	05343823          	sd	s3,80(s0)
   123da:	f800                	sd	s0,48(s0)
   123dc:	07a5                	addi	a5,a5,9
   123de:	c89c                	sw	a5,16(s1)
   123e0:	4621                	li	a2,8
   123e2:	4581                	li	a1,0
   123e4:	0a04a623          	sw	zero,172(s1)
   123e8:	0004b023          	sd	zero,0(s1)
   123ec:	0004b423          	sd	zero,8(s1)
   123f0:	0004bc23          	sd	zero,24(s1)
   123f4:	0204a023          	sw	zero,32(s1)
   123f8:	0204a423          	sw	zero,40(s1)
   123fc:	0a448513          	addi	a0,s1,164
   12400:	e03fd0ef          	jal	ra,10202 <memset>
   12404:	01893403          	ld	s0,24(s2)
   12408:	000207b7          	lui	a5,0x20
   1240c:	0364bc23          	sd	s6,56(s1)
   12410:	0554b023          	sd	s5,64(s1)
   12414:	0544b423          	sd	s4,72(s1)
   12418:	0534b823          	sd	s3,80(s1)
   1241c:	f884                	sd	s1,48(s1)
   1241e:	07c9                	addi	a5,a5,18
   12420:	c81c                	sw	a5,16(s0)
   12422:	0a042623          	sw	zero,172(s0)
   12426:	00043023          	sd	zero,0(s0)
   1242a:	00043423          	sd	zero,8(s0)
   1242e:	00043c23          	sd	zero,24(s0)
   12432:	02042023          	sw	zero,32(s0)
   12436:	02042423          	sw	zero,40(s0)
   1243a:	0a440513          	addi	a0,s0,164
   1243e:	4621                	li	a2,8
   12440:	4581                	li	a1,0
   12442:	dc1fd0ef          	jal	ra,10202 <memset>
   12446:	70e2                	ld	ra,56(sp)
   12448:	03643c23          	sd	s6,56(s0)
   1244c:	05543023          	sd	s5,64(s0)
   12450:	05443423          	sd	s4,72(s0)
   12454:	05343823          	sd	s3,80(s0)
   12458:	f800                	sd	s0,48(s0)
   1245a:	7442                	ld	s0,48(sp)
   1245c:	4785                	li	a5,1
   1245e:	04f92823          	sw	a5,80(s2)
   12462:	74a2                	ld	s1,40(sp)
   12464:	7902                	ld	s2,32(sp)
   12466:	69e2                	ld	s3,24(sp)
   12468:	6a42                	ld	s4,16(sp)
   1246a:	6aa2                	ld	s5,8(sp)
   1246c:	6b02                	ld	s6,0(sp)
   1246e:	6121                	addi	sp,sp,64
   12470:	8082                	ret

0000000000012472 <__sfmoreglue>:
   12472:	1101                	addi	sp,sp,-32
   12474:	e426                	sd	s1,8(sp)
   12476:	0b000613          	li	a2,176
   1247a:	fff5849b          	addiw	s1,a1,-1
   1247e:	02c484b3          	mul	s1,s1,a2
   12482:	e04a                	sd	s2,0(sp)
   12484:	892e                	mv	s2,a1
   12486:	e822                	sd	s0,16(sp)
   12488:	ec06                	sd	ra,24(sp)
   1248a:	0c848593          	addi	a1,s1,200
   1248e:	0cb020ef          	jal	ra,14d58 <_malloc_r>
   12492:	842a                	mv	s0,a0
   12494:	cd01                	beqz	a0,124ac <__sfmoreglue+0x3a>
   12496:	0561                	addi	a0,a0,24
   12498:	00043023          	sd	zero,0(s0)
   1249c:	01242423          	sw	s2,8(s0)
   124a0:	e808                	sd	a0,16(s0)
   124a2:	0b048613          	addi	a2,s1,176
   124a6:	4581                	li	a1,0
   124a8:	d5bfd0ef          	jal	ra,10202 <memset>
   124ac:	60e2                	ld	ra,24(sp)
   124ae:	8522                	mv	a0,s0
   124b0:	6442                	ld	s0,16(sp)
   124b2:	64a2                	ld	s1,8(sp)
   124b4:	6902                	ld	s2,0(sp)
   124b6:	6105                	addi	sp,sp,32
   124b8:	8082                	ret

00000000000124ba <__sfp>:
   124ba:	7179                	addi	sp,sp,-48
   124bc:	ec26                	sd	s1,24(sp)
   124be:	7401b483          	ld	s1,1856(gp) # 1f5d8 <_global_impure_ptr>
   124c2:	48bc                	lw	a5,80(s1)
   124c4:	e84a                	sd	s2,16(sp)
   124c6:	f406                	sd	ra,40(sp)
   124c8:	f022                	sd	s0,32(sp)
   124ca:	e44e                	sd	s3,8(sp)
   124cc:	e052                	sd	s4,0(sp)
   124ce:	892a                	mv	s2,a0
   124d0:	c3d9                	beqz	a5,12556 <__sfp+0x9c>
   124d2:	52048493          	addi	s1,s1,1312
   124d6:	0b000993          	li	s3,176
   124da:	4a11                	li	s4,4
   124dc:	449c                	lw	a5,8(s1)
   124de:	6880                	ld	s0,16(s1)
   124e0:	06f05763          	blez	a5,1254e <__sfp+0x94>
   124e4:	37fd                	addiw	a5,a5,-1
   124e6:	1782                	slli	a5,a5,0x20
   124e8:	9381                	srli	a5,a5,0x20
   124ea:	0785                	addi	a5,a5,1
   124ec:	033787b3          	mul	a5,a5,s3
   124f0:	97a2                	add	a5,a5,s0
   124f2:	a029                	j	124fc <__sfp+0x42>
   124f4:	0b040413          	addi	s0,s0,176
   124f8:	04f40b63          	beq	s0,a5,1254e <__sfp+0x94>
   124fc:	01041703          	lh	a4,16(s0)
   12500:	fb75                	bnez	a4,124f4 <__sfp+0x3a>
   12502:	77c1                	lui	a5,0xffff0
   12504:	0785                	addi	a5,a5,1
   12506:	0a042623          	sw	zero,172(s0)
   1250a:	00043023          	sd	zero,0(s0)
   1250e:	00043423          	sd	zero,8(s0)
   12512:	c81c                	sw	a5,16(s0)
   12514:	00043c23          	sd	zero,24(s0)
   12518:	02042023          	sw	zero,32(s0)
   1251c:	02042423          	sw	zero,40(s0)
   12520:	4621                	li	a2,8
   12522:	4581                	li	a1,0
   12524:	0a440513          	addi	a0,s0,164
   12528:	cdbfd0ef          	jal	ra,10202 <memset>
   1252c:	04043c23          	sd	zero,88(s0)
   12530:	06042023          	sw	zero,96(s0)
   12534:	06043c23          	sd	zero,120(s0)
   12538:	08042023          	sw	zero,128(s0)
   1253c:	70a2                	ld	ra,40(sp)
   1253e:	8522                	mv	a0,s0
   12540:	7402                	ld	s0,32(sp)
   12542:	64e2                	ld	s1,24(sp)
   12544:	6942                	ld	s2,16(sp)
   12546:	69a2                	ld	s3,8(sp)
   12548:	6a02                	ld	s4,0(sp)
   1254a:	6145                	addi	sp,sp,48
   1254c:	8082                	ret
   1254e:	6080                	ld	s0,0(s1)
   12550:	c419                	beqz	s0,1255e <__sfp+0xa4>
   12552:	84a2                	mv	s1,s0
   12554:	b761                	j	124dc <__sfp+0x22>
   12556:	8526                	mv	a0,s1
   12558:	df3ff0ef          	jal	ra,1234a <__sinit.part.0>
   1255c:	bf9d                	j	124d2 <__sfp+0x18>
   1255e:	2d800593          	li	a1,728
   12562:	854a                	mv	a0,s2
   12564:	7f4020ef          	jal	ra,14d58 <_malloc_r>
   12568:	842a                	mv	s0,a0
   1256a:	cd19                	beqz	a0,12588 <__sfp+0xce>
   1256c:	0561                	addi	a0,a0,24
   1256e:	00043023          	sd	zero,0(s0)
   12572:	01442423          	sw	s4,8(s0)
   12576:	e808                	sd	a0,16(s0)
   12578:	2c000613          	li	a2,704
   1257c:	4581                	li	a1,0
   1257e:	c85fd0ef          	jal	ra,10202 <memset>
   12582:	e080                	sd	s0,0(s1)
   12584:	84a2                	mv	s1,s0
   12586:	bf99                	j	124dc <__sfp+0x22>
   12588:	0004b023          	sd	zero,0(s1)
   1258c:	47b1                	li	a5,12
   1258e:	00f92023          	sw	a5,0(s2)
   12592:	b76d                	j	1253c <__sfp+0x82>

0000000000012594 <_cleanup>:
   12594:	00007597          	auipc	a1,0x7
   12598:	b7058593          	addi	a1,a1,-1168 # 19104 <_fclose_r>
   1259c:	7401b503          	ld	a0,1856(gp) # 1f5d8 <_global_impure_ptr>
   125a0:	a139                	j	129ae <_fwalk_reent>

00000000000125a2 <__sinit>:
   125a2:	493c                	lw	a5,80(a0)
   125a4:	c391                	beqz	a5,125a8 <__sinit+0x6>
   125a6:	8082                	ret
   125a8:	b34d                	j	1234a <__sinit.part.0>

00000000000125aa <__sfp_lock_acquire>:
   125aa:	8082                	ret

00000000000125ac <__sfp_lock_release>:
   125ac:	8082                	ret

00000000000125ae <__sinit_lock_acquire>:
   125ae:	8082                	ret

00000000000125b0 <__sinit_lock_release>:
   125b0:	8082                	ret

00000000000125b2 <__fp_lock_all>:
   125b2:	00000597          	auipc	a1,0x0
   125b6:	d8658593          	addi	a1,a1,-634 # 12338 <__fp_lock>
   125ba:	7581b503          	ld	a0,1880(gp) # 1f5f0 <_impure_ptr>
   125be:	a6bd                	j	1292c <_fwalk>

00000000000125c0 <__fp_unlock_all>:
   125c0:	00000597          	auipc	a1,0x0
   125c4:	d8658593          	addi	a1,a1,-634 # 12346 <__fp_unlock>
   125c8:	7581b503          	ld	a0,1880(gp) # 1f5f0 <_impure_ptr>
   125cc:	a685                	j	1292c <_fwalk>

00000000000125ce <__libc_fini_array>:
   125ce:	1101                	addi	sp,sp,-32
   125d0:	e822                	sd	s0,16(sp)
   125d2:	0000c797          	auipc	a5,0xc
   125d6:	e8e78793          	addi	a5,a5,-370 # 1e460 <__DATA_BEGIN__>
   125da:	0000c417          	auipc	s0,0xc
   125de:	e7e40413          	addi	s0,s0,-386 # 1e458 <__do_global_dtors_aux_fini_array_entry>
   125e2:	8f81                	sub	a5,a5,s0
   125e4:	e426                	sd	s1,8(sp)
   125e6:	ec06                	sd	ra,24(sp)
   125e8:	4037d493          	srai	s1,a5,0x3
   125ec:	c881                	beqz	s1,125fc <__libc_fini_array+0x2e>
   125ee:	17e1                	addi	a5,a5,-8
   125f0:	943e                	add	s0,s0,a5
   125f2:	601c                	ld	a5,0(s0)
   125f4:	14fd                	addi	s1,s1,-1
   125f6:	1461                	addi	s0,s0,-8
   125f8:	9782                	jalr	a5
   125fa:	fce5                	bnez	s1,125f2 <__libc_fini_array+0x24>
   125fc:	60e2                	ld	ra,24(sp)
   125fe:	6442                	ld	s0,16(sp)
   12600:	64a2                	ld	s1,8(sp)
   12602:	6105                	addi	sp,sp,32
   12604:	8082                	ret

0000000000012606 <_malloc_trim_r>:
   12606:	7179                	addi	sp,sp,-48
   12608:	f022                	sd	s0,32(sp)
   1260a:	ec26                	sd	s1,24(sp)
   1260c:	e84a                	sd	s2,16(sp)
   1260e:	e44e                	sd	s3,8(sp)
   12610:	e052                	sd	s4,0(sp)
   12612:	89ae                	mv	s3,a1
   12614:	f406                	sd	ra,40(sp)
   12616:	0000ca17          	auipc	s4,0xc
   1261a:	782a0a13          	addi	s4,s4,1922 # 1ed98 <__malloc_av_>
   1261e:	892a                	mv	s2,a0
   12620:	63b020ef          	jal	ra,1545a <__malloc_lock>
   12624:	010a3703          	ld	a4,16(s4)
   12628:	6785                	lui	a5,0x1
   1262a:	fdf78413          	addi	s0,a5,-33 # fdf <done+0xf9f>
   1262e:	6704                	ld	s1,8(a4)
   12630:	41340433          	sub	s0,s0,s3
   12634:	98f1                	andi	s1,s1,-4
   12636:	9426                	add	s0,s0,s1
   12638:	8031                	srli	s0,s0,0xc
   1263a:	147d                	addi	s0,s0,-1
   1263c:	0432                	slli	s0,s0,0xc
   1263e:	00f44b63          	blt	s0,a5,12654 <_malloc_trim_r+0x4e>
   12642:	4581                	li	a1,0
   12644:	854a                	mv	a0,s2
   12646:	2d9030ef          	jal	ra,1611e <_sbrk_r>
   1264a:	010a3783          	ld	a5,16(s4)
   1264e:	97a6                	add	a5,a5,s1
   12650:	00f50e63          	beq	a0,a5,1266c <_malloc_trim_r+0x66>
   12654:	854a                	mv	a0,s2
   12656:	607020ef          	jal	ra,1545c <__malloc_unlock>
   1265a:	70a2                	ld	ra,40(sp)
   1265c:	7402                	ld	s0,32(sp)
   1265e:	64e2                	ld	s1,24(sp)
   12660:	6942                	ld	s2,16(sp)
   12662:	69a2                	ld	s3,8(sp)
   12664:	6a02                	ld	s4,0(sp)
   12666:	4501                	li	a0,0
   12668:	6145                	addi	sp,sp,48
   1266a:	8082                	ret
   1266c:	408005b3          	neg	a1,s0
   12670:	854a                	mv	a0,s2
   12672:	2ad030ef          	jal	ra,1611e <_sbrk_r>
   12676:	57fd                	li	a5,-1
   12678:	02f50c63          	beq	a0,a5,126b0 <_malloc_trim_r+0xaa>
   1267c:	0000d717          	auipc	a4,0xd
   12680:	ff470713          	addi	a4,a4,-12 # 1f670 <__malloc_current_mallinfo>
   12684:	431c                	lw	a5,0(a4)
   12686:	010a3683          	ld	a3,16(s4)
   1268a:	8c81                	sub	s1,s1,s0
   1268c:	0014e493          	ori	s1,s1,1
   12690:	4087843b          	subw	s0,a5,s0
   12694:	854a                	mv	a0,s2
   12696:	e684                	sd	s1,8(a3)
   12698:	c300                	sw	s0,0(a4)
   1269a:	5c3020ef          	jal	ra,1545c <__malloc_unlock>
   1269e:	70a2                	ld	ra,40(sp)
   126a0:	7402                	ld	s0,32(sp)
   126a2:	64e2                	ld	s1,24(sp)
   126a4:	6942                	ld	s2,16(sp)
   126a6:	69a2                	ld	s3,8(sp)
   126a8:	6a02                	ld	s4,0(sp)
   126aa:	4505                	li	a0,1
   126ac:	6145                	addi	sp,sp,48
   126ae:	8082                	ret
   126b0:	4581                	li	a1,0
   126b2:	854a                	mv	a0,s2
   126b4:	26b030ef          	jal	ra,1611e <_sbrk_r>
   126b8:	010a3703          	ld	a4,16(s4)
   126bc:	46fd                	li	a3,31
   126be:	40e507b3          	sub	a5,a0,a4
   126c2:	f8f6d9e3          	bge	a3,a5,12654 <_malloc_trim_r+0x4e>
   126c6:	7601b683          	ld	a3,1888(gp) # 1f5f8 <__malloc_sbrk_base>
   126ca:	8d15                	sub	a0,a0,a3
   126cc:	0017e793          	ori	a5,a5,1
   126d0:	0000d697          	auipc	a3,0xd
   126d4:	faa6a023          	sw	a0,-96(a3) # 1f670 <__malloc_current_mallinfo>
   126d8:	e71c                	sd	a5,8(a4)
   126da:	bfad                	j	12654 <_malloc_trim_r+0x4e>

00000000000126dc <_free_r>:
   126dc:	c5f5                	beqz	a1,127c8 <_free_r+0xec>
   126de:	1101                	addi	sp,sp,-32
   126e0:	e822                	sd	s0,16(sp)
   126e2:	e426                	sd	s1,8(sp)
   126e4:	842e                	mv	s0,a1
   126e6:	84aa                	mv	s1,a0
   126e8:	ec06                	sd	ra,24(sp)
   126ea:	571020ef          	jal	ra,1545a <__malloc_lock>
   126ee:	ff843583          	ld	a1,-8(s0)
   126f2:	ff040713          	addi	a4,s0,-16
   126f6:	0000c517          	auipc	a0,0xc
   126fa:	6a250513          	addi	a0,a0,1698 # 1ed98 <__malloc_av_>
   126fe:	ffe5f793          	andi	a5,a1,-2
   12702:	00f70633          	add	a2,a4,a5
   12706:	6614                	ld	a3,8(a2)
   12708:	01053803          	ld	a6,16(a0)
   1270c:	9af1                	andi	a3,a3,-4
   1270e:	14c80063          	beq	a6,a2,1284e <_free_r+0x172>
   12712:	e614                	sd	a3,8(a2)
   12714:	8985                	andi	a1,a1,1
   12716:	00d60833          	add	a6,a2,a3
   1271a:	e1c1                	bnez	a1,1279a <_free_r+0xbe>
   1271c:	ff043303          	ld	t1,-16(s0)
   12720:	00883583          	ld	a1,8(a6)
   12724:	0000c897          	auipc	a7,0xc
   12728:	68488893          	addi	a7,a7,1668 # 1eda8 <__malloc_av_+0x10>
   1272c:	40670733          	sub	a4,a4,t1
   12730:	01073803          	ld	a6,16(a4)
   12734:	979a                	add	a5,a5,t1
   12736:	8985                	andi	a1,a1,1
   12738:	0f180863          	beq	a6,a7,12828 <_free_r+0x14c>
   1273c:	01873303          	ld	t1,24(a4)
   12740:	00683c23          	sd	t1,24(a6)
   12744:	01033823          	sd	a6,16(t1)
   12748:	14058d63          	beqz	a1,128a2 <_free_r+0x1c6>
   1274c:	0017e693          	ori	a3,a5,1
   12750:	e714                	sd	a3,8(a4)
   12752:	e21c                	sd	a5,0(a2)
   12754:	1ff00693          	li	a3,511
   12758:	08f6e263          	bltu	a3,a5,127dc <_free_r+0x100>
   1275c:	838d                	srli	a5,a5,0x3
   1275e:	0017869b          	addiw	a3,a5,1
   12762:	0016969b          	slliw	a3,a3,0x1
   12766:	068e                	slli	a3,a3,0x3
   12768:	00853803          	ld	a6,8(a0)
   1276c:	96aa                	add	a3,a3,a0
   1276e:	628c                	ld	a1,0(a3)
   12770:	4027d61b          	sraiw	a2,a5,0x2
   12774:	4785                	li	a5,1
   12776:	00c797b3          	sll	a5,a5,a2
   1277a:	0107e7b3          	or	a5,a5,a6
   1277e:	ff068613          	addi	a2,a3,-16
   12782:	ef10                	sd	a2,24(a4)
   12784:	eb0c                	sd	a1,16(a4)
   12786:	e51c                	sd	a5,8(a0)
   12788:	e298                	sd	a4,0(a3)
   1278a:	ed98                	sd	a4,24(a1)
   1278c:	6442                	ld	s0,16(sp)
   1278e:	60e2                	ld	ra,24(sp)
   12790:	8526                	mv	a0,s1
   12792:	64a2                	ld	s1,8(sp)
   12794:	6105                	addi	sp,sp,32
   12796:	4c70206f          	j	1545c <__malloc_unlock>
   1279a:	00883583          	ld	a1,8(a6)
   1279e:	8985                	andi	a1,a1,1
   127a0:	e58d                	bnez	a1,127ca <_free_r+0xee>
   127a2:	97b6                	add	a5,a5,a3
   127a4:	0000c897          	auipc	a7,0xc
   127a8:	60488893          	addi	a7,a7,1540 # 1eda8 <__malloc_av_+0x10>
   127ac:	6a14                	ld	a3,16(a2)
   127ae:	0017e813          	ori	a6,a5,1
   127b2:	00f705b3          	add	a1,a4,a5
   127b6:	11168063          	beq	a3,a7,128b6 <_free_r+0x1da>
   127ba:	6e10                	ld	a2,24(a2)
   127bc:	ee90                	sd	a2,24(a3)
   127be:	ea14                	sd	a3,16(a2)
   127c0:	01073423          	sd	a6,8(a4)
   127c4:	e19c                	sd	a5,0(a1)
   127c6:	b779                	j	12754 <_free_r+0x78>
   127c8:	8082                	ret
   127ca:	0017e693          	ori	a3,a5,1
   127ce:	fed43c23          	sd	a3,-8(s0)
   127d2:	e21c                	sd	a5,0(a2)
   127d4:	1ff00693          	li	a3,511
   127d8:	f8f6f2e3          	bgeu	a3,a5,1275c <_free_r+0x80>
   127dc:	0097d693          	srli	a3,a5,0x9
   127e0:	4611                	li	a2,4
   127e2:	08d66f63          	bltu	a2,a3,12880 <_free_r+0x1a4>
   127e6:	0067d693          	srli	a3,a5,0x6
   127ea:	0396859b          	addiw	a1,a3,57
   127ee:	0015959b          	slliw	a1,a1,0x1
   127f2:	0386861b          	addiw	a2,a3,56
   127f6:	058e                	slli	a1,a1,0x3
   127f8:	95aa                	add	a1,a1,a0
   127fa:	6194                	ld	a3,0(a1)
   127fc:	15c1                	addi	a1,a1,-16
   127fe:	0cd58663          	beq	a1,a3,128ca <_free_r+0x1ee>
   12802:	6690                	ld	a2,8(a3)
   12804:	9a71                	andi	a2,a2,-4
   12806:	00c7f563          	bgeu	a5,a2,12810 <_free_r+0x134>
   1280a:	6a94                	ld	a3,16(a3)
   1280c:	fed59be3          	bne	a1,a3,12802 <_free_r+0x126>
   12810:	6e8c                	ld	a1,24(a3)
   12812:	ef0c                	sd	a1,24(a4)
   12814:	eb14                	sd	a3,16(a4)
   12816:	6442                	ld	s0,16(sp)
   12818:	60e2                	ld	ra,24(sp)
   1281a:	e998                	sd	a4,16(a1)
   1281c:	8526                	mv	a0,s1
   1281e:	64a2                	ld	s1,8(sp)
   12820:	ee98                	sd	a4,24(a3)
   12822:	6105                	addi	sp,sp,32
   12824:	4390206f          	j	1545c <__malloc_unlock>
   12828:	0e059d63          	bnez	a1,12922 <_free_r+0x246>
   1282c:	6e0c                	ld	a1,24(a2)
   1282e:	6a10                	ld	a2,16(a2)
   12830:	97b6                	add	a5,a5,a3
   12832:	6442                	ld	s0,16(sp)
   12834:	ee0c                	sd	a1,24(a2)
   12836:	e990                	sd	a2,16(a1)
   12838:	0017e693          	ori	a3,a5,1
   1283c:	60e2                	ld	ra,24(sp)
   1283e:	e714                	sd	a3,8(a4)
   12840:	8526                	mv	a0,s1
   12842:	973e                	add	a4,a4,a5
   12844:	64a2                	ld	s1,8(sp)
   12846:	e31c                	sd	a5,0(a4)
   12848:	6105                	addi	sp,sp,32
   1284a:	4130206f          	j	1545c <__malloc_unlock>
   1284e:	8985                	andi	a1,a1,1
   12850:	97b6                	add	a5,a5,a3
   12852:	e989                	bnez	a1,12864 <_free_r+0x188>
   12854:	ff043583          	ld	a1,-16(s0)
   12858:	8f0d                	sub	a4,a4,a1
   1285a:	6f14                	ld	a3,24(a4)
   1285c:	6b10                	ld	a2,16(a4)
   1285e:	97ae                	add	a5,a5,a1
   12860:	ee14                	sd	a3,24(a2)
   12862:	ea90                	sd	a2,16(a3)
   12864:	0017e693          	ori	a3,a5,1
   12868:	e714                	sd	a3,8(a4)
   1286a:	e918                	sd	a4,16(a0)
   1286c:	7681b703          	ld	a4,1896(gp) # 1f600 <__malloc_trim_threshold>
   12870:	f0e7eee3          	bltu	a5,a4,1278c <_free_r+0xb0>
   12874:	7881b583          	ld	a1,1928(gp) # 1f620 <__malloc_top_pad>
   12878:	8526                	mv	a0,s1
   1287a:	d8dff0ef          	jal	ra,12606 <_malloc_trim_r>
   1287e:	b739                	j	1278c <_free_r+0xb0>
   12880:	4651                	li	a2,20
   12882:	02d67263          	bgeu	a2,a3,128a6 <_free_r+0x1ca>
   12886:	05400613          	li	a2,84
   1288a:	04d66b63          	bltu	a2,a3,128e0 <_free_r+0x204>
   1288e:	00c7d693          	srli	a3,a5,0xc
   12892:	06f6859b          	addiw	a1,a3,111
   12896:	0015959b          	slliw	a1,a1,0x1
   1289a:	06e6861b          	addiw	a2,a3,110
   1289e:	058e                	slli	a1,a1,0x3
   128a0:	bfa1                	j	127f8 <_free_r+0x11c>
   128a2:	97b6                	add	a5,a5,a3
   128a4:	b721                	j	127ac <_free_r+0xd0>
   128a6:	05c6859b          	addiw	a1,a3,92
   128aa:	0015959b          	slliw	a1,a1,0x1
   128ae:	05b6861b          	addiw	a2,a3,91
   128b2:	058e                	slli	a1,a1,0x3
   128b4:	b791                	j	127f8 <_free_r+0x11c>
   128b6:	f518                	sd	a4,40(a0)
   128b8:	f118                	sd	a4,32(a0)
   128ba:	01173c23          	sd	a7,24(a4)
   128be:	01173823          	sd	a7,16(a4)
   128c2:	01073423          	sd	a6,8(a4)
   128c6:	e19c                	sd	a5,0(a1)
   128c8:	b5d1                	j	1278c <_free_r+0xb0>
   128ca:	00853803          	ld	a6,8(a0)
   128ce:	4026561b          	sraiw	a2,a2,0x2
   128d2:	4785                	li	a5,1
   128d4:	00c79633          	sll	a2,a5,a2
   128d8:	01066633          	or	a2,a2,a6
   128dc:	e510                	sd	a2,8(a0)
   128de:	bf15                	j	12812 <_free_r+0x136>
   128e0:	15400613          	li	a2,340
   128e4:	00d66c63          	bltu	a2,a3,128fc <_free_r+0x220>
   128e8:	00f7d693          	srli	a3,a5,0xf
   128ec:	0786859b          	addiw	a1,a3,120
   128f0:	0015959b          	slliw	a1,a1,0x1
   128f4:	0776861b          	addiw	a2,a3,119
   128f8:	058e                	slli	a1,a1,0x3
   128fa:	bdfd                	j	127f8 <_free_r+0x11c>
   128fc:	55400613          	li	a2,1364
   12900:	00d66c63          	bltu	a2,a3,12918 <_free_r+0x23c>
   12904:	0127d693          	srli	a3,a5,0x12
   12908:	07d6859b          	addiw	a1,a3,125
   1290c:	0015959b          	slliw	a1,a1,0x1
   12910:	07c6861b          	addiw	a2,a3,124
   12914:	058e                	slli	a1,a1,0x3
   12916:	b5cd                	j	127f8 <_free_r+0x11c>
   12918:	7f000593          	li	a1,2032
   1291c:	07e00613          	li	a2,126
   12920:	bde1                	j	127f8 <_free_r+0x11c>
   12922:	0017e693          	ori	a3,a5,1
   12926:	e714                	sd	a3,8(a4)
   12928:	e21c                	sd	a5,0(a2)
   1292a:	b58d                	j	1278c <_free_r+0xb0>

000000000001292c <_fwalk>:
   1292c:	715d                	addi	sp,sp,-80
   1292e:	f84a                	sd	s2,48(sp)
   12930:	f44e                	sd	s3,40(sp)
   12932:	f052                	sd	s4,32(sp)
   12934:	ec56                	sd	s5,24(sp)
   12936:	e85a                	sd	s6,16(sp)
   12938:	e45e                	sd	s7,8(sp)
   1293a:	e486                	sd	ra,72(sp)
   1293c:	e0a2                	sd	s0,64(sp)
   1293e:	fc26                	sd	s1,56(sp)
   12940:	8a2e                	mv	s4,a1
   12942:	52050913          	addi	s2,a0,1312
   12946:	4b01                	li	s6,0
   12948:	0b000a93          	li	s5,176
   1294c:	4b85                	li	s7,1
   1294e:	59fd                	li	s3,-1
   12950:	00892783          	lw	a5,8(s2)
   12954:	01093403          	ld	s0,16(s2)
   12958:	02f05b63          	blez	a5,1298e <_fwalk+0x62>
   1295c:	fff7849b          	addiw	s1,a5,-1
   12960:	1482                	slli	s1,s1,0x20
   12962:	9081                	srli	s1,s1,0x20
   12964:	0485                	addi	s1,s1,1
   12966:	035484b3          	mul	s1,s1,s5
   1296a:	94a2                	add	s1,s1,s0
   1296c:	01045783          	lhu	a5,16(s0)
   12970:	00fbfb63          	bgeu	s7,a5,12986 <_fwalk+0x5a>
   12974:	01241783          	lh	a5,18(s0)
   12978:	8522                	mv	a0,s0
   1297a:	01378663          	beq	a5,s3,12986 <_fwalk+0x5a>
   1297e:	9a02                	jalr	s4
   12980:	01656b33          	or	s6,a0,s6
   12984:	2b01                	sext.w	s6,s6
   12986:	0b040413          	addi	s0,s0,176
   1298a:	fe8491e3          	bne	s1,s0,1296c <_fwalk+0x40>
   1298e:	00093903          	ld	s2,0(s2)
   12992:	fa091fe3          	bnez	s2,12950 <_fwalk+0x24>
   12996:	60a6                	ld	ra,72(sp)
   12998:	6406                	ld	s0,64(sp)
   1299a:	74e2                	ld	s1,56(sp)
   1299c:	7942                	ld	s2,48(sp)
   1299e:	79a2                	ld	s3,40(sp)
   129a0:	7a02                	ld	s4,32(sp)
   129a2:	6ae2                	ld	s5,24(sp)
   129a4:	6ba2                	ld	s7,8(sp)
   129a6:	855a                	mv	a0,s6
   129a8:	6b42                	ld	s6,16(sp)
   129aa:	6161                	addi	sp,sp,80
   129ac:	8082                	ret

00000000000129ae <_fwalk_reent>:
   129ae:	715d                	addi	sp,sp,-80
   129b0:	f84a                	sd	s2,48(sp)
   129b2:	f44e                	sd	s3,40(sp)
   129b4:	f052                	sd	s4,32(sp)
   129b6:	ec56                	sd	s5,24(sp)
   129b8:	e85a                	sd	s6,16(sp)
   129ba:	e45e                	sd	s7,8(sp)
   129bc:	e062                	sd	s8,0(sp)
   129be:	e486                	sd	ra,72(sp)
   129c0:	e0a2                	sd	s0,64(sp)
   129c2:	fc26                	sd	s1,56(sp)
   129c4:	8c2a                	mv	s8,a0
   129c6:	8a2e                	mv	s4,a1
   129c8:	52050913          	addi	s2,a0,1312
   129cc:	4b01                	li	s6,0
   129ce:	0b000a93          	li	s5,176
   129d2:	4b85                	li	s7,1
   129d4:	59fd                	li	s3,-1
   129d6:	00892783          	lw	a5,8(s2)
   129da:	01093403          	ld	s0,16(s2)
   129de:	02f05c63          	blez	a5,12a16 <_fwalk_reent+0x68>
   129e2:	fff7849b          	addiw	s1,a5,-1
   129e6:	1482                	slli	s1,s1,0x20
   129e8:	9081                	srli	s1,s1,0x20
   129ea:	0485                	addi	s1,s1,1
   129ec:	035484b3          	mul	s1,s1,s5
   129f0:	94a2                	add	s1,s1,s0
   129f2:	01045783          	lhu	a5,16(s0)
   129f6:	00fbfc63          	bgeu	s7,a5,12a0e <_fwalk_reent+0x60>
   129fa:	01241783          	lh	a5,18(s0)
   129fe:	85a2                	mv	a1,s0
   12a00:	8562                	mv	a0,s8
   12a02:	01378663          	beq	a5,s3,12a0e <_fwalk_reent+0x60>
   12a06:	9a02                	jalr	s4
   12a08:	01656b33          	or	s6,a0,s6
   12a0c:	2b01                	sext.w	s6,s6
   12a0e:	0b040413          	addi	s0,s0,176
   12a12:	fe8490e3          	bne	s1,s0,129f2 <_fwalk_reent+0x44>
   12a16:	00093903          	ld	s2,0(s2)
   12a1a:	fa091ee3          	bnez	s2,129d6 <_fwalk_reent+0x28>
   12a1e:	60a6                	ld	ra,72(sp)
   12a20:	6406                	ld	s0,64(sp)
   12a22:	74e2                	ld	s1,56(sp)
   12a24:	7942                	ld	s2,48(sp)
   12a26:	79a2                	ld	s3,40(sp)
   12a28:	7a02                	ld	s4,32(sp)
   12a2a:	6ae2                	ld	s5,24(sp)
   12a2c:	6ba2                	ld	s7,8(sp)
   12a2e:	6c02                	ld	s8,0(sp)
   12a30:	855a                	mv	a0,s6
   12a32:	6b42                	ld	s6,16(sp)
   12a34:	6161                	addi	sp,sp,80
   12a36:	8082                	ret

0000000000012a38 <eshdn1>:
   12a38:	00450693          	addi	a3,a0,4
   12a3c:	4781                	li	a5,0
   12a3e:	0569                	addi	a0,a0,26
   12a40:	7861                	lui	a6,0xffff8
   12a42:	a811                	j	12a56 <eshdn1+0x1e>
   12a44:	0017979b          	slliw	a5,a5,0x1
   12a48:	00e69023          	sh	a4,0(a3)
   12a4c:	17c2                	slli	a5,a5,0x30
   12a4e:	0689                	addi	a3,a3,2
   12a50:	93c1                	srli	a5,a5,0x30
   12a52:	02d50863          	beq	a0,a3,12a82 <eshdn1+0x4a>
   12a56:	0006d703          	lhu	a4,0(a3)
   12a5a:	00177613          	andi	a2,a4,1
   12a5e:	c219                	beqz	a2,12a64 <eshdn1+0x2c>
   12a60:	0017e793          	ori	a5,a5,1
   12a64:	8305                	srli	a4,a4,0x1
   12a66:	0027f613          	andi	a2,a5,2
   12a6a:	010765b3          	or	a1,a4,a6
   12a6e:	da79                	beqz	a2,12a44 <eshdn1+0xc>
   12a70:	0017979b          	slliw	a5,a5,0x1
   12a74:	00b69023          	sh	a1,0(a3)
   12a78:	17c2                	slli	a5,a5,0x30
   12a7a:	0689                	addi	a3,a3,2
   12a7c:	93c1                	srli	a5,a5,0x30
   12a7e:	fcd51ce3          	bne	a0,a3,12a56 <eshdn1+0x1e>
   12a82:	8082                	ret

0000000000012a84 <eshup1>:
   12a84:	01850693          	addi	a3,a0,24
   12a88:	4701                	li	a4,0
   12a8a:	0509                	addi	a0,a0,2
   12a8c:	a811                	j	12aa0 <eshup1+0x1c>
   12a8e:	0017171b          	slliw	a4,a4,0x1
   12a92:	00f69023          	sh	a5,0(a3)
   12a96:	1742                	slli	a4,a4,0x30
   12a98:	16f9                	addi	a3,a3,-2
   12a9a:	9341                	srli	a4,a4,0x30
   12a9c:	02d50b63          	beq	a0,a3,12ad2 <eshup1+0x4e>
   12aa0:	0006d783          	lhu	a5,0(a3)
   12aa4:	00f7d613          	srli	a2,a5,0xf
   12aa8:	0017979b          	slliw	a5,a5,0x1
   12aac:	c219                	beqz	a2,12ab2 <eshup1+0x2e>
   12aae:	00176713          	ori	a4,a4,1
   12ab2:	17c2                	slli	a5,a5,0x30
   12ab4:	93c1                	srli	a5,a5,0x30
   12ab6:	00277613          	andi	a2,a4,2
   12aba:	0017e593          	ori	a1,a5,1
   12abe:	da61                	beqz	a2,12a8e <eshup1+0xa>
   12ac0:	0017171b          	slliw	a4,a4,0x1
   12ac4:	00b69023          	sh	a1,0(a3)
   12ac8:	1742                	slli	a4,a4,0x30
   12aca:	16f9                	addi	a3,a3,-2
   12acc:	9341                	srli	a4,a4,0x30
   12ace:	fcd519e3          	bne	a0,a3,12aa0 <eshup1+0x1c>
   12ad2:	8082                	ret

0000000000012ad4 <m16m>:
   12ad4:	1101                	addi	sp,sp,-32
   12ad6:	6e41                	lui	t3,0x10
   12ad8:	00011b23          	sh	zero,22(sp)
   12adc:	00011c23          	sh	zero,24(sp)
   12ae0:	05e1                	addi	a1,a1,24
   12ae2:	083c                	addi	a5,sp,24
   12ae4:	00410813          	addi	a6,sp,4
   12ae8:	1e7d                	addi	t3,t3,-1
   12aea:	0005d703          	lhu	a4,0(a1)
   12aee:	17f9                	addi	a5,a5,-2
   12af0:	15f9                	addi	a1,a1,-2
   12af2:	e315                	bnez	a4,12b16 <m16m+0x42>
   12af4:	fe079f23          	sh	zero,-2(a5)
   12af8:	ff0799e3          	bne	a5,a6,12aea <m16m+0x16>
   12afc:	0611                	addi	a2,a2,4
   12afe:	01a10693          	addi	a3,sp,26
   12b02:	0007d703          	lhu	a4,0(a5)
   12b06:	0789                	addi	a5,a5,2
   12b08:	0609                	addi	a2,a2,2
   12b0a:	fee61f23          	sh	a4,-2(a2)
   12b0e:	fed79ae3          	bne	a5,a3,12b02 <m16m+0x2e>
   12b12:	6105                	addi	sp,sp,32
   12b14:	8082                	ret
   12b16:	02a70733          	mul	a4,a4,a0
   12b1a:	0027d883          	lhu	a7,2(a5)
   12b1e:	0007d303          	lhu	t1,0(a5)
   12b22:	01c776b3          	and	a3,a4,t3
   12b26:	96c6                	add	a3,a3,a7
   12b28:	8341                	srli	a4,a4,0x10
   12b2a:	0106d893          	srli	a7,a3,0x10
   12b2e:	971a                	add	a4,a4,t1
   12b30:	9746                	add	a4,a4,a7
   12b32:	01075893          	srli	a7,a4,0x10
   12b36:	00d79123          	sh	a3,2(a5)
   12b3a:	00e79023          	sh	a4,0(a5)
   12b3e:	ff179f23          	sh	a7,-2(a5)
   12b42:	fb0794e3          	bne	a5,a6,12aea <m16m+0x16>
   12b46:	bf5d                	j	12afc <m16m+0x28>

0000000000012b48 <emovo.constprop.0>:
   12b48:	00055703          	lhu	a4,0(a0)
   12b4c:	00255783          	lhu	a5,2(a0)
   12b50:	c319                	beqz	a4,12b56 <emovo.constprop.0+0xe>
   12b52:	6721                	lui	a4,0x8
   12b54:	8fd9                	or	a5,a5,a4
   12b56:	00f59923          	sh	a5,18(a1)
   12b5a:	00255703          	lhu	a4,2(a0)
   12b5e:	67a1                	lui	a5,0x8
   12b60:	17fd                	addi	a5,a5,-1
   12b62:	00f70f63          	beq	a4,a5,12b80 <emovo.constprop.0+0x38>
   12b66:	00650793          	addi	a5,a0,6
   12b6a:	05c1                	addi	a1,a1,16
   12b6c:	0561                	addi	a0,a0,24
   12b6e:	0007d703          	lhu	a4,0(a5) # 8000 <done+0x7fc0>
   12b72:	0789                	addi	a5,a5,2
   12b74:	15f9                	addi	a1,a1,-2
   12b76:	00e59123          	sh	a4,2(a1)
   12b7a:	fea79ae3          	bne	a5,a0,12b6e <emovo.constprop.0+0x26>
   12b7e:	8082                	ret
   12b80:	00650793          	addi	a5,a0,6
   12b84:	0569                	addi	a0,a0,26
   12b86:	0007d703          	lhu	a4,0(a5)
   12b8a:	0789                	addi	a5,a5,2
   12b8c:	e31d                	bnez	a4,12bb2 <emovo.constprop.0+0x6a>
   12b8e:	fea79ce3          	bne	a5,a0,12b86 <emovo.constprop.0+0x3e>
   12b92:	01258713          	addi	a4,a1,18
   12b96:	87ae                	mv	a5,a1
   12b98:	0789                	addi	a5,a5,2
   12b9a:	fe079f23          	sh	zero,-2(a5)
   12b9e:	fef71de3          	bne	a4,a5,12b98 <emovo.constprop.0+0x50>
   12ba2:	0125d783          	lhu	a5,18(a1)
   12ba6:	6721                	lui	a4,0x8
   12ba8:	177d                	addi	a4,a4,-1
   12baa:	8fd9                	or	a5,a5,a4
   12bac:	00f59923          	sh	a5,18(a1)
   12bb0:	8082                	ret
   12bb2:	01058713          	addi	a4,a1,16
   12bb6:	87ae                	mv	a5,a1
   12bb8:	0789                	addi	a5,a5,2
   12bba:	fe079f23          	sh	zero,-2(a5)
   12bbe:	fef71de3          	bne	a4,a5,12bb8 <emovo.constprop.0+0x70>
   12bc2:	77f1                	lui	a5,0xffffc
   12bc4:	00f59823          	sh	a5,16(a1)
   12bc8:	77e1                	lui	a5,0xffff8
   12bca:	fff7c793          	not	a5,a5
   12bce:	00f59923          	sh	a5,18(a1)
   12bd2:	8082                	ret

0000000000012bd4 <enormlz>:
   12bd4:	00455783          	lhu	a5,4(a0)
   12bd8:	1101                	addi	sp,sp,-32
   12bda:	e426                	sd	s1,8(sp)
   12bdc:	ec06                	sd	ra,24(sp)
   12bde:	e822                	sd	s0,16(sp)
   12be0:	e04a                	sd	s2,0(sp)
   12be2:	84aa                	mv	s1,a0
   12be4:	efc9                	bnez	a5,12c7e <enormlz+0xaa>
   12be6:	00655703          	lhu	a4,6(a0)
   12bea:	4401                	li	s0,0
   12bec:	00f75793          	srli	a5,a4,0xf
   12bf0:	e3c1                	bnez	a5,12c70 <enormlz+0x9c>
   12bf2:	01a50693          	addi	a3,a0,26
   12bf6:	0a000613          	li	a2,160
   12bfa:	e31d                	bnez	a4,12c20 <enormlz+0x4c>
   12bfc:	00648793          	addi	a5,s1,6
   12c00:	a019                	j	12c06 <enormlz+0x32>
   12c02:	0007d703          	lhu	a4,0(a5) # ffffffffffff8000 <__BSS_END__+0xfffffffffffd8968>
   12c06:	0789                	addi	a5,a5,2
   12c08:	fee79e23          	sh	a4,-4(a5)
   12c0c:	fed79be3          	bne	a5,a3,12c02 <enormlz+0x2e>
   12c10:	00049c23          	sh	zero,24(s1)
   12c14:	2441                	addiw	s0,s0,16
   12c16:	04c40d63          	beq	s0,a2,12c70 <enormlz+0x9c>
   12c1a:	0064d703          	lhu	a4,6(s1)
   12c1e:	df79                	beqz	a4,12bfc <enormlz+0x28>
   12c20:	f0077793          	andi	a5,a4,-256
   12c24:	eb8d                	bnez	a5,12c56 <enormlz+0x82>
   12c26:	01848513          	addi	a0,s1,24
   12c2a:	00248593          	addi	a1,s1,2
   12c2e:	4781                	li	a5,0
   12c30:	872a                	mv	a4,a0
   12c32:	00075683          	lhu	a3,0(a4) # 8000 <done+0x7fc0>
   12c36:	1779                	addi	a4,a4,-2
   12c38:	0086961b          	slliw	a2,a3,0x8
   12c3c:	8fd1                	or	a5,a5,a2
   12c3e:	00f71123          	sh	a5,2(a4)
   12c42:	0086d793          	srli	a5,a3,0x8
   12c46:	fee596e3          	bne	a1,a4,12c32 <enormlz+0x5e>
   12c4a:	0064d703          	lhu	a4,6(s1)
   12c4e:	2421                	addiw	s0,s0,8
   12c50:	f0077793          	andi	a5,a4,-256
   12c54:	dfe9                	beqz	a5,12c2e <enormlz+0x5a>
   12c56:	0a000913          	li	s2,160
   12c5a:	a801                	j	12c6a <enormlz+0x96>
   12c5c:	2405                	addiw	s0,s0,1
   12c5e:	e27ff0ef          	jal	ra,12a84 <eshup1>
   12c62:	00894763          	blt	s2,s0,12c70 <enormlz+0x9c>
   12c66:	0064d703          	lhu	a4,6(s1)
   12c6a:	833d                	srli	a4,a4,0xf
   12c6c:	8526                	mv	a0,s1
   12c6e:	d77d                	beqz	a4,12c5c <enormlz+0x88>
   12c70:	60e2                	ld	ra,24(sp)
   12c72:	8522                	mv	a0,s0
   12c74:	6442                	ld	s0,16(sp)
   12c76:	64a2                	ld	s1,8(sp)
   12c78:	6902                	ld	s2,0(sp)
   12c7a:	6105                	addi	sp,sp,32
   12c7c:	8082                	ret
   12c7e:	f007f713          	andi	a4,a5,-256
   12c82:	4401                	li	s0,0
   12c84:	e705                	bnez	a4,12cac <enormlz+0xd8>
   12c86:	f6f00913          	li	s2,-145
   12c8a:	a801                	j	12c9a <enormlz+0xc6>
   12c8c:	347d                	addiw	s0,s0,-1
   12c8e:	dabff0ef          	jal	ra,12a38 <eshdn1>
   12c92:	fd240fe3          	beq	s0,s2,12c70 <enormlz+0x9c>
   12c96:	0044d783          	lhu	a5,4(s1)
   12c9a:	8526                	mv	a0,s1
   12c9c:	fbe5                	bnez	a5,12c8c <enormlz+0xb8>
   12c9e:	60e2                	ld	ra,24(sp)
   12ca0:	8522                	mv	a0,s0
   12ca2:	6442                	ld	s0,16(sp)
   12ca4:	64a2                	ld	s1,8(sp)
   12ca6:	6902                	ld	s2,0(sp)
   12ca8:	6105                	addi	sp,sp,32
   12caa:	8082                	ret
   12cac:	00450693          	addi	a3,a0,4
   12cb0:	01a50593          	addi	a1,a0,26
   12cb4:	4701                	li	a4,0
   12cb6:	a019                	j	12cbc <enormlz+0xe8>
   12cb8:	0006d783          	lhu	a5,0(a3)
   12cbc:	0087d61b          	srliw	a2,a5,0x8
   12cc0:	8f51                	or	a4,a4,a2
   12cc2:	0087979b          	slliw	a5,a5,0x8
   12cc6:	00e69023          	sh	a4,0(a3)
   12cca:	03079713          	slli	a4,a5,0x30
   12cce:	0689                	addi	a3,a3,2
   12cd0:	9341                	srli	a4,a4,0x30
   12cd2:	fed593e3          	bne	a1,a3,12cb8 <enormlz+0xe4>
   12cd6:	0044d783          	lhu	a5,4(s1)
   12cda:	5461                	li	s0,-8
   12cdc:	b76d                	j	12c86 <enormlz+0xb2>

0000000000012cde <eshift.part.0>:
   12cde:	7179                	addi	sp,sp,-48
   12ce0:	f022                	sd	s0,32(sp)
   12ce2:	ec26                	sd	s1,24(sp)
   12ce4:	f406                	sd	ra,40(sp)
   12ce6:	e84a                	sd	s2,16(sp)
   12ce8:	e44e                	sd	s3,8(sp)
   12cea:	84ae                	mv	s1,a1
   12cec:	842a                	mv	s0,a0
   12cee:	0605cb63          	bltz	a1,12d64 <eshift.part.0+0x86>
   12cf2:	47bd                	li	a5,15
   12cf4:	862e                	mv	a2,a1
   12cf6:	0511                	addi	a0,a0,4
   12cf8:	01840693          	addi	a3,s0,24
   12cfc:	45bd                	li	a1,15
   12cfe:	0297d063          	bge	a5,s1,12d1e <eshift.part.0+0x40>
   12d02:	87aa                	mv	a5,a0
   12d04:	0027d703          	lhu	a4,2(a5)
   12d08:	0789                	addi	a5,a5,2
   12d0a:	fee79f23          	sh	a4,-2(a5)
   12d0e:	fef69be3          	bne	a3,a5,12d04 <eshift.part.0+0x26>
   12d12:	00041c23          	sh	zero,24(s0)
   12d16:	3641                	addiw	a2,a2,-16
   12d18:	fec5c5e3          	blt	a1,a2,12d02 <eshift.part.0+0x24>
   12d1c:	88bd                	andi	s1,s1,15
   12d1e:	479d                	li	a5,7
   12d20:	0297d463          	bge	a5,s1,12d48 <eshift.part.0+0x6a>
   12d24:	01840713          	addi	a4,s0,24
   12d28:	00240593          	addi	a1,s0,2
   12d2c:	4781                	li	a5,0
   12d2e:	00075683          	lhu	a3,0(a4)
   12d32:	1779                	addi	a4,a4,-2
   12d34:	0086961b          	slliw	a2,a3,0x8
   12d38:	8fd1                	or	a5,a5,a2
   12d3a:	00f71123          	sh	a5,2(a4)
   12d3e:	0086d793          	srli	a5,a3,0x8
   12d42:	fee596e3          	bne	a1,a4,12d2e <eshift.part.0+0x50>
   12d46:	34e1                	addiw	s1,s1,-8
   12d48:	c491                	beqz	s1,12d54 <eshift.part.0+0x76>
   12d4a:	34fd                	addiw	s1,s1,-1
   12d4c:	8522                	mv	a0,s0
   12d4e:	d37ff0ef          	jal	ra,12a84 <eshup1>
   12d52:	fce5                	bnez	s1,12d4a <eshift.part.0+0x6c>
   12d54:	4501                	li	a0,0
   12d56:	70a2                	ld	ra,40(sp)
   12d58:	7402                	ld	s0,32(sp)
   12d5a:	64e2                	ld	s1,24(sp)
   12d5c:	6942                	ld	s2,16(sp)
   12d5e:	69a2                	ld	s3,8(sp)
   12d60:	6145                	addi	sp,sp,48
   12d62:	8082                	ret
   12d64:	57c5                	li	a5,-15
   12d66:	40b0093b          	negw	s2,a1
   12d6a:	0ef5d763          	bge	a1,a5,12e58 <eshift.part.0+0x17a>
   12d6e:	01850593          	addi	a1,a0,24
   12d72:	4981                	li	s3,0
   12d74:	00450693          	addi	a3,a0,4
   12d78:	463d                	li	a2,15
   12d7a:	01845703          	lhu	a4,24(s0)
   12d7e:	87ae                	mv	a5,a1
   12d80:	00e9e9b3          	or	s3,s3,a4
   12d84:	ffe7d703          	lhu	a4,-2(a5)
   12d88:	17f9                	addi	a5,a5,-2
   12d8a:	00e79123          	sh	a4,2(a5)
   12d8e:	fed79be3          	bne	a5,a3,12d84 <eshift.part.0+0xa6>
   12d92:	00041223          	sh	zero,4(s0)
   12d96:	3941                	addiw	s2,s2,-16
   12d98:	ff2641e3          	blt	a2,s2,12d7a <eshift.part.0+0x9c>
   12d9c:	5941                	li	s2,-16
   12d9e:	5745                	li	a4,-15
   12da0:	4099093b          	subw	s2,s2,s1
   12da4:	4781                	li	a5,0
   12da6:	08e4c263          	blt	s1,a4,12e2a <eshift.part.0+0x14c>
   12daa:	00f9093b          	addw	s2,s2,a5
   12dae:	479d                	li	a5,7
   12db0:	0327ce63          	blt	a5,s2,12dec <eshift.part.0+0x10e>
   12db4:	08090a63          	beqz	s2,12e48 <eshift.part.0+0x16a>
   12db8:	01845783          	lhu	a5,24(s0)
   12dbc:	397d                	addiw	s2,s2,-1
   12dbe:	8522                	mv	a0,s0
   12dc0:	8b85                	andi	a5,a5,1
   12dc2:	0137e9b3          	or	s3,a5,s3
   12dc6:	c73ff0ef          	jal	ra,12a38 <eshdn1>
   12dca:	fe0917e3          	bnez	s2,12db8 <eshift.part.0+0xda>
   12dce:	0109979b          	slliw	a5,s3,0x10
   12dd2:	4107d79b          	sraiw	a5,a5,0x10
   12dd6:	e7a5                	bnez	a5,12e3e <eshift.part.0+0x160>
   12dd8:	03099513          	slli	a0,s3,0x30
   12ddc:	9141                	srli	a0,a0,0x30
   12dde:	70a2                	ld	ra,40(sp)
   12de0:	7402                	ld	s0,32(sp)
   12de2:	64e2                	ld	s1,24(sp)
   12de4:	6942                	ld	s2,16(sp)
   12de6:	69a2                	ld	s3,8(sp)
   12de8:	6145                	addi	sp,sp,48
   12dea:	8082                	ret
   12dec:	0109999b          	slliw	s3,s3,0x10
   12df0:	4109d99b          	sraiw	s3,s3,0x10
   12df4:	01844783          	lbu	a5,24(s0)
   12df8:	01a40593          	addi	a1,s0,26
   12dfc:	00f9e9b3          	or	s3,s3,a5
   12e00:	19c2                	slli	s3,s3,0x30
   12e02:	0309d993          	srli	s3,s3,0x30
   12e06:	4781                	li	a5,0
   12e08:	0006d703          	lhu	a4,0(a3)
   12e0c:	0689                	addi	a3,a3,2
   12e0e:	0087561b          	srliw	a2,a4,0x8
   12e12:	8fd1                	or	a5,a5,a2
   12e14:	0087171b          	slliw	a4,a4,0x8
   12e18:	fef69f23          	sh	a5,-2(a3)
   12e1c:	03071793          	slli	a5,a4,0x30
   12e20:	93c1                	srli	a5,a5,0x30
   12e22:	fed593e3          	bne	a1,a3,12e08 <eshift.part.0+0x12a>
   12e26:	3961                	addiw	s2,s2,-8
   12e28:	b771                	j	12db4 <eshift.part.0+0xd6>
   12e2a:	ff097793          	andi	a5,s2,-16
   12e2e:	40f007bb          	negw	a5,a5
   12e32:	00f9093b          	addw	s2,s2,a5
   12e36:	479d                	li	a5,7
   12e38:	f727dee3          	bge	a5,s2,12db4 <eshift.part.0+0xd6>
   12e3c:	bf45                	j	12dec <eshift.part.0+0x10e>
   12e3e:	4985                	li	s3,1
   12e40:	03099513          	slli	a0,s3,0x30
   12e44:	9141                	srli	a0,a0,0x30
   12e46:	bf61                	j	12dde <eshift.part.0+0x100>
   12e48:	854e                	mv	a0,s3
   12e4a:	00099563          	bnez	s3,12e54 <eshift.part.0+0x176>
   12e4e:	1542                	slli	a0,a0,0x30
   12e50:	9141                	srli	a0,a0,0x30
   12e52:	b711                	j	12d56 <eshift.part.0+0x78>
   12e54:	4505                	li	a0,1
   12e56:	bfe5                	j	12e4e <eshift.part.0+0x170>
   12e58:	57e5                	li	a5,-7
   12e5a:	4981                	li	s3,0
   12e5c:	00450693          	addi	a3,a0,4
   12e60:	f8f5cae3          	blt	a1,a5,12df4 <eshift.part.0+0x116>
   12e64:	bf91                	j	12db8 <eshift.part.0+0xda>

0000000000012e66 <emovi>:
   12e66:	01255783          	lhu	a5,18(a0)
   12e6a:	6621                	lui	a2,0x8
   12e6c:	167d                	addi	a2,a2,-1
   12e6e:	00f7d79b          	srliw	a5,a5,0xf
   12e72:	40f007bb          	negw	a5,a5
   12e76:	00f59023          	sh	a5,0(a1)
   12e7a:	01255683          	lhu	a3,18(a0)
   12e7e:	01050793          	addi	a5,a0,16
   12e82:	00458713          	addi	a4,a1,4
   12e86:	8ef1                	and	a3,a3,a2
   12e88:	00d59123          	sh	a3,2(a1)
   12e8c:	0006881b          	sext.w	a6,a3
   12e90:	02c68263          	beq	a3,a2,12eb4 <emovi+0x4e>
   12e94:	00658713          	addi	a4,a1,6
   12e98:	00059223          	sh	zero,4(a1)
   12e9c:	1579                	addi	a0,a0,-2
   12e9e:	0007d683          	lhu	a3,0(a5)
   12ea2:	17f9                	addi	a5,a5,-2
   12ea4:	0709                	addi	a4,a4,2
   12ea6:	fed71f23          	sh	a3,-2(a4)
   12eaa:	fef51ae3          	bne	a0,a5,12e9e <emovi+0x38>
   12eae:	00059c23          	sh	zero,24(a1)
   12eb2:	8082                	ret
   12eb4:	01255683          	lhu	a3,18(a0)
   12eb8:	00d876b3          	and	a3,a6,a3
   12ebc:	01069b63          	bne	a3,a6,12ed2 <emovi+0x6c>
   12ec0:	01250813          	addi	a6,a0,18
   12ec4:	86aa                	mv	a3,a0
   12ec6:	0006d603          	lhu	a2,0(a3)
   12eca:	0689                	addi	a3,a3,2
   12ecc:	ea11                	bnez	a2,12ee0 <emovi+0x7a>
   12ece:	ff069ce3          	bne	a3,a6,12ec6 <emovi+0x60>
   12ed2:	05e9                	addi	a1,a1,26
   12ed4:	0709                	addi	a4,a4,2
   12ed6:	fe071f23          	sh	zero,-2(a4)
   12eda:	fee59de3          	bne	a1,a4,12ed4 <emovi+0x6e>
   12ede:	8082                	ret
   12ee0:	00658713          	addi	a4,a1,6
   12ee4:	00059223          	sh	zero,4(a1)
   12ee8:	1571                	addi	a0,a0,-4
   12eea:	0007d683          	lhu	a3,0(a5)
   12eee:	17f9                	addi	a5,a5,-2
   12ef0:	0709                	addi	a4,a4,2
   12ef2:	fed71f23          	sh	a3,-2(a4)
   12ef6:	fea79ae3          	bne	a5,a0,12eea <emovi+0x84>
   12efa:	8082                	ret

0000000000012efc <ecmp>:
   12efc:	01255783          	lhu	a5,18(a0)
   12f00:	715d                	addi	sp,sp,-80
   12f02:	e0a2                	sd	s0,64(sp)
   12f04:	fff7c793          	not	a5,a5
   12f08:	e486                	sd	ra,72(sp)
   12f0a:	03179713          	slli	a4,a5,0x31
   12f0e:	842e                	mv	s0,a1
   12f10:	eb11                	bnez	a4,12f24 <ecmp+0x28>
   12f12:	01250693          	addi	a3,a0,18
   12f16:	87aa                	mv	a5,a0
   12f18:	0007d703          	lhu	a4,0(a5)
   12f1c:	0789                	addi	a5,a5,2
   12f1e:	eb25                	bnez	a4,12f8e <ecmp+0x92>
   12f20:	fed79ce3          	bne	a5,a3,12f18 <ecmp+0x1c>
   12f24:	01245783          	lhu	a5,18(s0)
   12f28:	fff7c793          	not	a5,a5
   12f2c:	03179713          	slli	a4,a5,0x31
   12f30:	c331                	beqz	a4,12f74 <ecmp+0x78>
   12f32:	858a                	mv	a1,sp
   12f34:	f33ff0ef          	jal	ra,12e66 <emovi>
   12f38:	100c                	addi	a1,sp,32
   12f3a:	8522                	mv	a0,s0
   12f3c:	f2bff0ef          	jal	ra,12e66 <emovi>
   12f40:	00015583          	lhu	a1,0(sp)
   12f44:	02015783          	lhu	a5,32(sp)
   12f48:	04b78863          	beq	a5,a1,12f98 <ecmp+0x9c>
   12f4c:	00210793          	addi	a5,sp,2
   12f50:	02210713          	addi	a4,sp,34
   12f54:	0830                	addi	a2,sp,24
   12f56:	0007d683          	lhu	a3,0(a5)
   12f5a:	0789                	addi	a5,a5,2
   12f5c:	eea5                	bnez	a3,12fd4 <ecmp+0xd8>
   12f5e:	00075683          	lhu	a3,0(a4)
   12f62:	0709                	addi	a4,a4,2
   12f64:	eaa5                	bnez	a3,12fd4 <ecmp+0xd8>
   12f66:	fef618e3          	bne	a2,a5,12f56 <ecmp+0x5a>
   12f6a:	4501                	li	a0,0
   12f6c:	60a6                	ld	ra,72(sp)
   12f6e:	6406                	ld	s0,64(sp)
   12f70:	6161                	addi	sp,sp,80
   12f72:	8082                	ret
   12f74:	87a2                	mv	a5,s0
   12f76:	0007d703          	lhu	a4,0(a5)
   12f7a:	01240693          	addi	a3,s0,18
   12f7e:	0789                	addi	a5,a5,2
   12f80:	e719                	bnez	a4,12f8e <ecmp+0x92>
   12f82:	fad788e3          	beq	a5,a3,12f32 <ecmp+0x36>
   12f86:	0007d703          	lhu	a4,0(a5)
   12f8a:	0789                	addi	a5,a5,2
   12f8c:	db7d                	beqz	a4,12f82 <ecmp+0x86>
   12f8e:	60a6                	ld	ra,72(sp)
   12f90:	6406                	ld	s0,64(sp)
   12f92:	5579                	li	a0,-2
   12f94:	6161                	addi	sp,sp,80
   12f96:	8082                	ret
   12f98:	4505                	li	a0,1
   12f9a:	e1a9                	bnez	a1,12fdc <ecmp+0xe0>
   12f9c:	00215603          	lhu	a2,2(sp)
   12fa0:	02215683          	lhu	a3,34(sp)
   12fa4:	00210713          	addi	a4,sp,2
   12fa8:	02210793          	addi	a5,sp,34
   12fac:	182c                	addi	a1,sp,56
   12fae:	0789                	addi	a5,a5,2
   12fb0:	0709                	addi	a4,a4,2
   12fb2:	00d61c63          	bne	a2,a3,12fca <ecmp+0xce>
   12fb6:	fab78ae3          	beq	a5,a1,12f6a <ecmp+0x6e>
   12fba:	00075603          	lhu	a2,0(a4)
   12fbe:	0007d683          	lhu	a3,0(a5)
   12fc2:	0709                	addi	a4,a4,2
   12fc4:	0789                	addi	a5,a5,2
   12fc6:	fed608e3          	beq	a2,a3,12fb6 <ecmp+0xba>
   12fca:	fac6e1e3          	bltu	a3,a2,12f6c <ecmp+0x70>
   12fce:	40a0053b          	negw	a0,a0
   12fd2:	bf69                	j	12f6c <ecmp+0x70>
   12fd4:	4505                	li	a0,1
   12fd6:	d9d9                	beqz	a1,12f6c <ecmp+0x70>
   12fd8:	557d                	li	a0,-1
   12fda:	bf49                	j	12f6c <ecmp+0x70>
   12fdc:	557d                	li	a0,-1
   12fde:	bf7d                	j	12f9c <ecmp+0xa0>

0000000000012fe0 <emdnorm>:
   12fe0:	7139                	addi	sp,sp,-64
   12fe2:	f822                	sd	s0,48(sp)
   12fe4:	f426                	sd	s1,40(sp)
   12fe6:	f04a                	sd	s2,32(sp)
   12fe8:	ec4e                	sd	s3,24(sp)
   12fea:	e852                	sd	s4,16(sp)
   12fec:	e456                	sd	s5,8(sp)
   12fee:	8936                	mv	s2,a3
   12ff0:	84be                	mv	s1,a5
   12ff2:	fc06                	sd	ra,56(sp)
   12ff4:	842a                	mv	s0,a0
   12ff6:	89ae                	mv	s3,a1
   12ff8:	8a32                	mv	s4,a2
   12ffa:	8aba                	mv	s5,a4
   12ffc:	bd9ff0ef          	jal	ra,12bd4 <enormlz>
   13000:	09000793          	li	a5,144
   13004:	40a90933          	sub	s2,s2,a0
   13008:	14a7d563          	bge	a5,a0,13152 <emdnorm+0x172>
   1300c:	67a1                	lui	a5,0x8
   1300e:	17f9                	addi	a5,a5,-2
   13010:	1b27d663          	bge	a5,s2,131bc <emdnorm+0x1dc>
   13014:	180a8463          	beqz	s5,1319c <emdnorm+0x1bc>
   13018:	40c8                	lw	a0,4(s1)
   1301a:	409c                	lw	a5,0(s1)
   1301c:	04a78d63          	beq	a5,a0,13076 <emdnorm+0x96>
   13020:	01a48713          	addi	a4,s1,26
   13024:	03448793          	addi	a5,s1,52
   13028:	0709                	addi	a4,a4,2
   1302a:	fe071f23          	sh	zero,-2(a4)
   1302e:	fef71de3          	bne	a4,a5,13028 <emdnorm+0x48>
   13032:	03800793          	li	a5,56
   13036:	28f50b63          	beq	a0,a5,132cc <emdnorm+0x2ec>
   1303a:	12a7db63          	bge	a5,a0,13170 <emdnorm+0x190>
   1303e:	04000793          	li	a5,64
   13042:	24f50b63          	beq	a0,a5,13298 <emdnorm+0x2b8>
   13046:	07100793          	li	a5,113
   1304a:	26f51463          	bne	a0,a5,132b2 <emdnorm+0x2d2>
   1304e:	400087b7          	lui	a5,0x40008
   13052:	17fd                	addi	a5,a5,-1
   13054:	4729                	li	a4,10
   13056:	c8dc                	sw	a5,20(s1)
   13058:	77e1                	lui	a5,0xffff8
   1305a:	c498                	sw	a4,8(s1)
   1305c:	00f49c23          	sh	a5,24(s1)
   13060:	c4d8                	sw	a4,12(s1)
   13062:	47a9                	li	a5,10
   13064:	6721                	lui	a4,0x8
   13066:	07a1                	addi	a5,a5,8
   13068:	0786                	slli	a5,a5,0x1
   1306a:	97a6                	add	a5,a5,s1
   1306c:	00e79523          	sh	a4,10(a5) # ffffffffffff800a <__BSS_END__+0xfffffffffffd8972>
   13070:	c088                	sw	a0,0(s1)
   13072:	17205b63          	blez	s2,131e8 <emdnorm+0x208>
   13076:	4494                	lw	a3,8(s1)
   13078:	0144d603          	lhu	a2,20(s1)
   1307c:	08f00713          	li	a4,143
   13080:	00169793          	slli	a5,a3,0x1
   13084:	00f40833          	add	a6,s0,a5
   13088:	00085883          	lhu	a7,0(a6) # ffffffffffff8000 <__BSS_END__+0xfffffffffffd8968>
   1308c:	00c8f5b3          	and	a1,a7,a2
   13090:	02a74e63          	blt	a4,a0,130cc <emdnorm+0xec>
   13094:	472d                	li	a4,11
   13096:	02d74b63          	blt	a4,a3,130cc <emdnorm+0xec>
   1309a:	9f15                	subw	a4,a4,a3
   1309c:	1702                	slli	a4,a4,0x20
   1309e:	9301                	srli	a4,a4,0x20
   130a0:	9736                	add	a4,a4,a3
   130a2:	00171693          	slli	a3,a4,0x1
   130a6:	0789                	addi	a5,a5,2
   130a8:	00440713          	addi	a4,s0,4
   130ac:	97a2                	add	a5,a5,s0
   130ae:	9736                	add	a4,a4,a3
   130b0:	0007d683          	lhu	a3,0(a5)
   130b4:	c299                	beqz	a3,130ba <emdnorm+0xda>
   130b6:	0015e593          	ori	a1,a1,1
   130ba:	00079023          	sh	zero,0(a5)
   130be:	0789                	addi	a5,a5,2
   130c0:	fef718e3          	bne	a4,a5,130b0 <emdnorm+0xd0>
   130c4:	00085883          	lhu	a7,0(a6)
   130c8:	0144d603          	lhu	a2,20(s1)
   130cc:	fff64613          	not	a2,a2
   130d0:	01167633          	and	a2,a2,a7
   130d4:	00c81023          	sh	a2,0(a6)
   130d8:	0164d783          	lhu	a5,22(s1)
   130dc:	00b7f733          	and	a4,a5,a1
   130e0:	c339                	beqz	a4,13126 <emdnorm+0x146>
   130e2:	00b79d63          	bne	a5,a1,130fc <emdnorm+0x11c>
   130e6:	18099663          	bnez	s3,13272 <emdnorm+0x292>
   130ea:	44dc                	lw	a5,12(s1)
   130ec:	0184d703          	lhu	a4,24(s1)
   130f0:	0786                	slli	a5,a5,0x1
   130f2:	97a2                	add	a5,a5,s0
   130f4:	0007d783          	lhu	a5,0(a5)
   130f8:	8ff9                	and	a5,a5,a4
   130fa:	c795                	beqz	a5,13126 <emdnorm+0x146>
   130fc:	03248613          	addi	a2,s1,50
   13100:	01840693          	addi	a3,s0,24
   13104:	04f1                	addi	s1,s1,28
   13106:	4701                	li	a4,0
   13108:	00065783          	lhu	a5,0(a2) # 8000 <done+0x7fc0>
   1310c:	0006d583          	lhu	a1,0(a3)
   13110:	16f9                	addi	a3,a3,-2
   13112:	1679                	addi	a2,a2,-2
   13114:	97ae                	add	a5,a5,a1
   13116:	97ba                	add	a5,a5,a4
   13118:	0107d713          	srli	a4,a5,0x10
   1311c:	00f69123          	sh	a5,2(a3)
   13120:	8b05                	andi	a4,a4,1
   13122:	fe9613e3          	bne	a2,s1,13108 <emdnorm+0x128>
   13126:	11205763          	blez	s2,13234 <emdnorm+0x254>
   1312a:	00445783          	lhu	a5,4(s0)
   1312e:	e7e5                	bnez	a5,13216 <emdnorm+0x236>
   13130:	67a1                	lui	a5,0x8
   13132:	00041c23          	sh	zero,24(s0)
   13136:	17f9                	addi	a5,a5,-2
   13138:	0727c463          	blt	a5,s2,131a0 <emdnorm+0x1c0>
   1313c:	01241123          	sh	s2,2(s0)
   13140:	70e2                	ld	ra,56(sp)
   13142:	7442                	ld	s0,48(sp)
   13144:	74a2                	ld	s1,40(sp)
   13146:	7902                	ld	s2,32(sp)
   13148:	69e2                	ld	s3,24(sp)
   1314a:	6a42                	ld	s4,16(sp)
   1314c:	6aa2                	ld	s5,8(sp)
   1314e:	6121                	addi	sp,sp,64
   13150:	8082                	ret
   13152:	0a095963          	bgez	s2,13204 <emdnorm+0x224>
   13156:	f7000793          	li	a5,-144
   1315a:	06f95a63          	bge	s2,a5,131ce <emdnorm+0x1ee>
   1315e:	00240793          	addi	a5,s0,2
   13162:	0469                	addi	s0,s0,26
   13164:	0789                	addi	a5,a5,2
   13166:	fe079f23          	sh	zero,-2(a5) # 7ffe <done+0x7fbe>
   1316a:	fe879de3          	bne	a5,s0,13164 <emdnorm+0x184>
   1316e:	bfc9                	j	13140 <emdnorm+0x160>
   13170:	47e1                	li	a5,24
   13172:	10f50363          	beq	a0,a5,13278 <emdnorm+0x298>
   13176:	03500793          	li	a5,53
   1317a:	12f51c63          	bne	a0,a5,132b2 <emdnorm+0x2d2>
   1317e:	6705                	lui	a4,0x1
   13180:	040007b7          	lui	a5,0x4000
   13184:	4699                	li	a3,6
   13186:	7ff78793          	addi	a5,a5,2047 # 40007ff <__BSS_END__+0x3fe1167>
   1318a:	80070713          	addi	a4,a4,-2048 # 800 <done+0x7c0>
   1318e:	c8dc                	sw	a5,20(s1)
   13190:	c494                	sw	a3,8(s1)
   13192:	00e49c23          	sh	a4,24(s1)
   13196:	c4d4                	sw	a3,12(s1)
   13198:	4799                	li	a5,6
   1319a:	b5f1                	j	13066 <emdnorm+0x86>
   1319c:	00041c23          	sh	zero,24(s0)
   131a0:	77e1                	lui	a5,0xffff8
   131a2:	fff7c793          	not	a5,a5
   131a6:	00f41123          	sh	a5,2(s0)
   131aa:	00440793          	addi	a5,s0,4
   131ae:	0461                	addi	s0,s0,24
   131b0:	00079023          	sh	zero,0(a5) # ffffffffffff8000 <__BSS_END__+0xfffffffffffd8968>
   131b4:	0789                	addi	a5,a5,2
   131b6:	fef41de3          	bne	s0,a5,131b0 <emdnorm+0x1d0>
   131ba:	b759                	j	13140 <emdnorm+0x160>
   131bc:	00240793          	addi	a5,s0,2
   131c0:	0469                	addi	s0,s0,26
   131c2:	0789                	addi	a5,a5,2
   131c4:	fe079f23          	sh	zero,-2(a5)
   131c8:	fe879de3          	bne	a5,s0,131c2 <emdnorm+0x1e2>
   131cc:	bf95                	j	13140 <emdnorm+0x160>
   131ce:	0009059b          	sext.w	a1,s2
   131d2:	8522                	mv	a0,s0
   131d4:	b0bff0ef          	jal	ra,12cde <eshift.part.0>
   131d8:	c111                	beqz	a0,131dc <emdnorm+0x1fc>
   131da:	4985                	li	s3,1
   131dc:	080a8663          	beqz	s5,13268 <emdnorm+0x288>
   131e0:	40c8                	lw	a0,4(s1)
   131e2:	409c                	lw	a5,0(s1)
   131e4:	e2a79ee3          	bne	a5,a0,13020 <emdnorm+0x40>
   131e8:	09000793          	li	a5,144
   131ec:	06f50363          	beq	a0,a5,13252 <emdnorm+0x272>
   131f0:	01845783          	lhu	a5,24(s0)
   131f4:	8522                	mv	a0,s0
   131f6:	8b85                	andi	a5,a5,1
   131f8:	0137e9b3          	or	s3,a5,s3
   131fc:	83dff0ef          	jal	ra,12a38 <eshdn1>
   13200:	40c8                	lw	a0,4(s1)
   13202:	bd95                	j	13076 <emdnorm+0x96>
   13204:	f20a86e3          	beqz	s5,13130 <emdnorm+0x150>
   13208:	40c8                	lw	a0,4(s1)
   1320a:	409c                	lw	a5,0(s1)
   1320c:	e0a79ae3          	bne	a5,a0,13020 <emdnorm+0x40>
   13210:	e72043e3          	bgtz	s2,13076 <emdnorm+0x96>
   13214:	bfd1                	j	131e8 <emdnorm+0x208>
   13216:	8522                	mv	a0,s0
   13218:	821ff0ef          	jal	ra,12a38 <eshdn1>
   1321c:	67a1                	lui	a5,0x8
   1321e:	0905                	addi	s2,s2,1
   13220:	00041c23          	sh	zero,24(s0)
   13224:	17f9                	addi	a5,a5,-2
   13226:	f727cde3          	blt	a5,s2,131a0 <emdnorm+0x1c0>
   1322a:	f00959e3          	bgez	s2,1313c <emdnorm+0x15c>
   1322e:	00041123          	sh	zero,2(s0)
   13232:	b739                	j	13140 <emdnorm+0x160>
   13234:	09000793          	li	a5,144
   13238:	00f50563          	beq	a0,a5,13242 <emdnorm+0x262>
   1323c:	8522                	mv	a0,s0
   1323e:	847ff0ef          	jal	ra,12a84 <eshup1>
   13242:	00445783          	lhu	a5,4(s0)
   13246:	fbe1                	bnez	a5,13216 <emdnorm+0x236>
   13248:	00041c23          	sh	zero,24(s0)
   1324c:	fe0941e3          	bltz	s2,1322e <emdnorm+0x24e>
   13250:	b5f5                	j	1313c <emdnorm+0x15c>
   13252:	0084a803          	lw	a6,8(s1)
   13256:	0144d603          	lhu	a2,20(s1)
   1325a:	0806                	slli	a6,a6,0x1
   1325c:	9822                	add	a6,a6,s0
   1325e:	00085883          	lhu	a7,0(a6)
   13262:	011675b3          	and	a1,a2,a7
   13266:	b59d                	j	130cc <emdnorm+0xec>
   13268:	00041c23          	sh	zero,24(s0)
   1326c:	00041123          	sh	zero,2(s0)
   13270:	bdc1                	j	13140 <emdnorm+0x160>
   13272:	e80a05e3          	beqz	s4,130fc <emdnorm+0x11c>
   13276:	bd45                	j	13126 <emdnorm+0x146>
   13278:	008007b7          	lui	a5,0x800
   1327c:	0ff78793          	addi	a5,a5,255 # 8000ff <__BSS_END__+0x7e0a67>
   13280:	4711                	li	a4,4
   13282:	c8dc                	sw	a5,20(s1)
   13284:	10000793          	li	a5,256
   13288:	c498                	sw	a4,8(s1)
   1328a:	00f49c23          	sh	a5,24(s1)
   1328e:	c4d8                	sw	a4,12(s1)
   13290:	4791                	li	a5,4
   13292:	10000713          	li	a4,256
   13296:	bbc1                	j	13066 <emdnorm+0x86>
   13298:	479d                	li	a5,7
   1329a:	c49c                	sw	a5,8(s1)
   1329c:	800107b7          	lui	a5,0x80010
   132a0:	17fd                	addi	a5,a5,-1
   132a2:	c8dc                	sw	a5,20(s1)
   132a4:	4785                	li	a5,1
   132a6:	00f49c23          	sh	a5,24(s1)
   132aa:	4799                	li	a5,6
   132ac:	c4dc                	sw	a5,12(s1)
   132ae:	4705                	li	a4,1
   132b0:	bb5d                	j	13066 <emdnorm+0x86>
   132b2:	47b1                	li	a5,12
   132b4:	c49c                	sw	a5,8(s1)
   132b6:	800107b7          	lui	a5,0x80010
   132ba:	17fd                	addi	a5,a5,-1
   132bc:	c8dc                	sw	a5,20(s1)
   132be:	4785                	li	a5,1
   132c0:	00f49c23          	sh	a5,24(s1)
   132c4:	47ad                	li	a5,11
   132c6:	c4dc                	sw	a5,12(s1)
   132c8:	4705                	li	a4,1
   132ca:	bb71                	j	13066 <emdnorm+0x86>
   132cc:	008007b7          	lui	a5,0x800
   132d0:	0ff78793          	addi	a5,a5,255 # 8000ff <__BSS_END__+0x7e0a67>
   132d4:	4719                	li	a4,6
   132d6:	c8dc                	sw	a5,20(s1)
   132d8:	10000793          	li	a5,256
   132dc:	c498                	sw	a4,8(s1)
   132de:	00f49c23          	sh	a5,24(s1)
   132e2:	c4d8                	sw	a4,12(s1)
   132e4:	4799                	li	a5,6
   132e6:	10000713          	li	a4,256
   132ea:	bbb5                	j	13066 <emdnorm+0x86>

00000000000132ec <eiremain>:
   132ec:	711d                	addi	sp,sp,-96
   132ee:	e0ca                	sd	s2,64(sp)
   132f0:	fc4e                	sd	s3,56(sp)
   132f2:	892e                	mv	s2,a1
   132f4:	00255983          	lhu	s3,2(a0)
   132f8:	ec86                	sd	ra,88(sp)
   132fa:	e8a2                	sd	s0,80(sp)
   132fc:	e4a6                	sd	s1,72(sp)
   132fe:	f852                	sd	s4,48(sp)
   13300:	84b2                	mv	s1,a2
   13302:	ec5e                	sd	s7,24(sp)
   13304:	f456                	sd	s5,40(sp)
   13306:	f05a                	sd	s6,32(sp)
   13308:	e862                	sd	s8,16(sp)
   1330a:	e466                	sd	s9,8(sp)
   1330c:	e06a                	sd	s10,0(sp)
   1330e:	8baa                	mv	s7,a0
   13310:	8c5ff0ef          	jal	ra,12bd4 <enormlz>
   13314:	00295403          	lhu	s0,2(s2)
   13318:	87aa                	mv	a5,a0
   1331a:	854a                	mv	a0,s2
   1331c:	40f989b3          	sub	s3,s3,a5
   13320:	03448a13          	addi	s4,s1,52
   13324:	8b1ff0ef          	jal	ra,12bd4 <enormlz>
   13328:	8c09                	sub	s0,s0,a0
   1332a:	04e48713          	addi	a4,s1,78
   1332e:	87d2                	mv	a5,s4
   13330:	0789                	addi	a5,a5,2
   13332:	fe079f23          	sh	zero,-2(a5)
   13336:	fee79de3          	bne	a5,a4,13330 <eiremain+0x44>
   1333a:	07344a63          	blt	s0,s3,133ae <eiremain+0xc2>
   1333e:	004b8b13          	addi	s6,s7,4
   13342:	00490a93          	addi	s5,s2,4
   13346:	01ab8c13          	addi	s8,s7,26
   1334a:	00290d13          	addi	s10,s2,2
   1334e:	8756                	mv	a4,s5
   13350:	87da                	mv	a5,s6
   13352:	0007d603          	lhu	a2,0(a5)
   13356:	00075683          	lhu	a3,0(a4)
   1335a:	0789                	addi	a5,a5,2
   1335c:	0709                	addi	a4,a4,2
   1335e:	06d61c63          	bne	a2,a3,133d6 <eiremain+0xea>
   13362:	ff8798e3          	bne	a5,s8,13352 <eiremain+0x66>
   13366:	018b8613          	addi	a2,s7,24
   1336a:	01890713          	addi	a4,s2,24
   1336e:	4681                	li	a3,0
   13370:	00075783          	lhu	a5,0(a4)
   13374:	00065583          	lhu	a1,0(a2)
   13378:	1779                	addi	a4,a4,-2
   1337a:	8f95                	sub	a5,a5,a3
   1337c:	8f8d                	sub	a5,a5,a1
   1337e:	0107d693          	srli	a3,a5,0x10
   13382:	00f71123          	sh	a5,2(a4)
   13386:	8a85                	andi	a3,a3,1
   13388:	1679                	addi	a2,a2,-2
   1338a:	feed13e3          	bne	s10,a4,13370 <eiremain+0x84>
   1338e:	4c85                	li	s9,1
   13390:	8552                	mv	a0,s4
   13392:	ef2ff0ef          	jal	ra,12a84 <eshup1>
   13396:	04c4d783          	lhu	a5,76(s1)
   1339a:	147d                	addi	s0,s0,-1
   1339c:	854a                	mv	a0,s2
   1339e:	00fce7b3          	or	a5,s9,a5
   133a2:	04f49623          	sh	a5,76(s1)
   133a6:	edeff0ef          	jal	ra,12a84 <eshup1>
   133aa:	fb3452e3          	bge	s0,s3,1334e <eiremain+0x62>
   133ae:	86a2                	mv	a3,s0
   133b0:	6446                	ld	s0,80(sp)
   133b2:	60e6                	ld	ra,88(sp)
   133b4:	79e2                	ld	s3,56(sp)
   133b6:	7a42                	ld	s4,48(sp)
   133b8:	7aa2                	ld	s5,40(sp)
   133ba:	7b02                	ld	s6,32(sp)
   133bc:	6be2                	ld	s7,24(sp)
   133be:	6c42                	ld	s8,16(sp)
   133c0:	6ca2                	ld	s9,8(sp)
   133c2:	6d02                	ld	s10,0(sp)
   133c4:	87a6                	mv	a5,s1
   133c6:	854a                	mv	a0,s2
   133c8:	64a6                	ld	s1,72(sp)
   133ca:	6906                	ld	s2,64(sp)
   133cc:	4701                	li	a4,0
   133ce:	4601                	li	a2,0
   133d0:	4581                	li	a1,0
   133d2:	6125                	addi	sp,sp,96
   133d4:	b131                	j	12fe0 <emdnorm>
   133d6:	4c81                	li	s9,0
   133d8:	fac6ece3          	bltu	a3,a2,13390 <eiremain+0xa4>
   133dc:	b769                	j	13366 <eiremain+0x7a>

00000000000133de <emul>:
   133de:	7131                	addi	sp,sp,-192
   133e0:	f526                	sd	s1,168(sp)
   133e2:	84aa                	mv	s1,a0
   133e4:	01255503          	lhu	a0,18(a0)
   133e8:	6721                	lui	a4,0x8
   133ea:	177d                	addi	a4,a4,-1
   133ec:	f922                	sd	s0,176(sp)
   133ee:	f14a                	sd	s2,160(sp)
   133f0:	e952                	sd	s4,144(sp)
   133f2:	fd06                	sd	ra,184(sp)
   133f4:	ed4e                	sd	s3,152(sp)
   133f6:	e556                	sd	s5,136(sp)
   133f8:	e15a                	sd	s6,128(sp)
   133fa:	fcde                	sd	s7,120(sp)
   133fc:	f8e2                	sd	s8,112(sp)
   133fe:	f4e6                	sd	s9,104(sp)
   13400:	8d79                	and	a0,a0,a4
   13402:	892e                	mv	s2,a1
   13404:	8432                	mv	s0,a2
   13406:	8a36                	mv	s4,a3
   13408:	00e51c63          	bne	a0,a4,13420 <emul+0x42>
   1340c:	01248993          	addi	s3,s1,18
   13410:	8726                	mv	a4,s1
   13412:	00075603          	lhu	a2,0(a4) # 8000 <done+0x7fc0>
   13416:	0709                	addi	a4,a4,2
   13418:	12061663          	bnez	a2,13544 <emul+0x166>
   1341c:	ff371be3          	bne	a4,s3,13412 <emul+0x34>
   13420:	01295603          	lhu	a2,18(s2)
   13424:	67a1                	lui	a5,0x8
   13426:	17fd                	addi	a5,a5,-1
   13428:	00f675b3          	and	a1,a2,a5
   1342c:	08f59b63          	bne	a1,a5,134c2 <emul+0xe4>
   13430:	01290693          	addi	a3,s2,18
   13434:	874a                	mv	a4,s2
   13436:	00075783          	lhu	a5,0(a4)
   1343a:	0709                	addi	a4,a4,2
   1343c:	1a079463          	bnez	a5,135e4 <emul+0x206>
   13440:	fee69be3          	bne	a3,a4,13436 <emul+0x58>
   13444:	67a1                	lui	a5,0x8
   13446:	17fd                	addi	a5,a5,-1
   13448:	06f50f63          	beq	a0,a5,134c6 <emul+0xe8>
   1344c:	87ca                	mv	a5,s2
   1344e:	0007d703          	lhu	a4,0(a5) # 8000 <done+0x7fc0>
   13452:	0789                	addi	a5,a5,2
   13454:	30071163          	bnez	a4,13756 <emul+0x378>
   13458:	fef69be3          	bne	a3,a5,1344e <emul+0x70>
   1345c:	00009597          	auipc	a1,0x9
   13460:	4b458593          	addi	a1,a1,1204 # 1c910 <ezero>
   13464:	8526                	mv	a0,s1
   13466:	a97ff0ef          	jal	ra,12efc <ecmp>
   1346a:	18050863          	beqz	a0,135fa <emul+0x21c>
   1346e:	0124d503          	lhu	a0,18(s1)
   13472:	01295603          	lhu	a2,18(s2)
   13476:	67a1                	lui	a5,0x8
   13478:	17fd                	addi	a5,a5,-1
   1347a:	00f576b3          	and	a3,a0,a5
   1347e:	00f67733          	and	a4,a2,a5
   13482:	8836                	mv	a6,a3
   13484:	0007059b          	sext.w	a1,a4
   13488:	0ef69763          	bne	a3,a5,13576 <emul+0x198>
   1348c:	01248993          	addi	s3,s1,18
   13490:	0007059b          	sext.w	a1,a4
   13494:	87a6                	mv	a5,s1
   13496:	0007d703          	lhu	a4,0(a5) # 8000 <done+0x7fc0>
   1349a:	0789                	addi	a5,a5,2
   1349c:	eb79                	bnez	a4,13572 <emul+0x194>
   1349e:	fef99ce3          	bne	s3,a5,13496 <emul+0xb8>
   134a2:	0004d783          	lhu	a5,0(s1)
   134a6:	0489                	addi	s1,s1,2
   134a8:	26079e63          	bnez	a5,13724 <emul+0x346>
   134ac:	ff349be3          	bne	s1,s3,134a2 <emul+0xc4>
   134b0:	00f55893          	srli	a7,a0,0xf
   134b4:	6721                	lui	a4,0x8
   134b6:	177d                	addi	a4,a4,-1
   134b8:	0ee59d63          	bne	a1,a4,135b2 <emul+0x1d4>
   134bc:	01290693          	addi	a3,s2,18
   134c0:	a0d5                	j	135a4 <emul+0x1c6>
   134c2:	04f51363          	bne	a0,a5,13508 <emul+0x12a>
   134c6:	01248993          	addi	s3,s1,18
   134ca:	87a6                	mv	a5,s1
   134cc:	0007d703          	lhu	a4,0(a5)
   134d0:	0789                	addi	a5,a5,2
   134d2:	24071b63          	bnez	a4,13728 <emul+0x34a>
   134d6:	fef99be3          	bne	s3,a5,134cc <emul+0xee>
   134da:	00009597          	auipc	a1,0x9
   134de:	43658593          	addi	a1,a1,1078 # 1c910 <ezero>
   134e2:	854a                	mv	a0,s2
   134e4:	a19ff0ef          	jal	ra,12efc <ecmp>
   134e8:	10050963          	beqz	a0,135fa <emul+0x21c>
   134ec:	01295603          	lhu	a2,18(s2)
   134f0:	67a1                	lui	a5,0x8
   134f2:	17fd                	addi	a5,a5,-1
   134f4:	00f675b3          	and	a1,a2,a5
   134f8:	12f58263          	beq	a1,a5,1361c <emul+0x23e>
   134fc:	0124d503          	lhu	a0,18(s1)
   13500:	00f57733          	and	a4,a0,a5
   13504:	f8f708e3          	beq	a4,a5,13494 <emul+0xb6>
   13508:	8526                	mv	a0,s1
   1350a:	858a                	mv	a1,sp
   1350c:	95bff0ef          	jal	ra,12e66 <emovi>
   13510:	100c                	addi	a1,sp,32
   13512:	854a                	mv	a0,s2
   13514:	953ff0ef          	jal	ra,12e66 <emovi>
   13518:	00215483          	lhu	s1,2(sp)
   1351c:	02215983          	lhu	s3,34(sp)
   13520:	10049163          	bnez	s1,13622 <emul+0x244>
   13524:	005c                	addi	a5,sp,4
   13526:	0834                	addi	a3,sp,24
   13528:	20d78763          	beq	a5,a3,13736 <emul+0x358>
   1352c:	0007d703          	lhu	a4,0(a5) # 8000 <done+0x7fc0>
   13530:	0789                	addi	a5,a5,2
   13532:	db7d                	beqz	a4,13528 <emul+0x14a>
   13534:	850a                	mv	a0,sp
   13536:	e9eff0ef          	jal	ra,12bd4 <enormlz>
   1353a:	02215703          	lhu	a4,34(sp)
   1353e:	40a004b3          	neg	s1,a0
   13542:	a0cd                	j	13624 <emul+0x246>
   13544:	01448713          	addi	a4,s1,20
   13548:	0004d783          	lhu	a5,0(s1)
   1354c:	0489                	addi	s1,s1,2
   1354e:	0409                	addi	s0,s0,2
   13550:	fef41f23          	sh	a5,-2(s0)
   13554:	fee49ae3          	bne	s1,a4,13548 <emul+0x16a>
   13558:	70ea                	ld	ra,184(sp)
   1355a:	744a                	ld	s0,176(sp)
   1355c:	74aa                	ld	s1,168(sp)
   1355e:	790a                	ld	s2,160(sp)
   13560:	69ea                	ld	s3,152(sp)
   13562:	6a4a                	ld	s4,144(sp)
   13564:	6aaa                	ld	s5,136(sp)
   13566:	6b0a                	ld	s6,128(sp)
   13568:	7be6                	ld	s7,120(sp)
   1356a:	7c46                	ld	s8,112(sp)
   1356c:	7ca6                	ld	s9,104(sp)
   1356e:	6129                	addi	sp,sp,192
   13570:	8082                	ret
   13572:	6821                	lui	a6,0x8
   13574:	187d                	addi	a6,a6,-1
   13576:	67a1                	lui	a5,0x8
   13578:	17fd                	addi	a5,a5,-1
   1357a:	f8f597e3          	bne	a1,a5,13508 <emul+0x12a>
   1357e:	01290693          	addi	a3,s2,18
   13582:	87ca                	mv	a5,s2
   13584:	0007d703          	lhu	a4,0(a5) # 8000 <done+0x7fc0>
   13588:	0789                	addi	a5,a5,2
   1358a:	ff3d                	bnez	a4,13508 <emul+0x12a>
   1358c:	fed79ce3          	bne	a5,a3,13584 <emul+0x1a6>
   13590:	6721                	lui	a4,0x8
   13592:	2801                	sext.w	a6,a6
   13594:	177d                	addi	a4,a4,-1
   13596:	00f55893          	srli	a7,a0,0xf
   1359a:	01248993          	addi	s3,s1,18
   1359e:	85c2                	mv	a1,a6
   135a0:	f0e801e3          	beq	a6,a4,134a2 <emul+0xc4>
   135a4:	00095703          	lhu	a4,0(s2)
   135a8:	0909                	addi	s2,s2,2
   135aa:	16071b63          	bnez	a4,13720 <emul+0x342>
   135ae:	fed91be3          	bne	s2,a3,135a4 <emul+0x1c6>
   135b2:	00f65793          	srli	a5,a2,0xf
   135b6:	411787b3          	sub	a5,a5,a7
   135ba:	00f037b3          	snez	a5,a5
   135be:	07be                	slli	a5,a5,0xf
   135c0:	00f41923          	sh	a5,18(s0)
   135c4:	01240713          	addi	a4,s0,18
   135c8:	87a2                	mv	a5,s0
   135ca:	0789                	addi	a5,a5,2
   135cc:	fe079f23          	sh	zero,-2(a5)
   135d0:	fee79de3          	bne	a5,a4,135ca <emul+0x1ec>
   135d4:	01245783          	lhu	a5,18(s0)
   135d8:	6721                	lui	a4,0x8
   135da:	177d                	addi	a4,a4,-1
   135dc:	8fd9                	or	a5,a5,a4
   135de:	00f41923          	sh	a5,18(s0)
   135e2:	bf9d                	j	13558 <emul+0x17a>
   135e4:	01440713          	addi	a4,s0,20
   135e8:	00095783          	lhu	a5,0(s2)
   135ec:	0409                	addi	s0,s0,2
   135ee:	0909                	addi	s2,s2,2
   135f0:	fef41f23          	sh	a5,-2(s0)
   135f4:	fee41ae3          	bne	s0,a4,135e8 <emul+0x20a>
   135f8:	b785                	j	13558 <emul+0x17a>
   135fa:	01040713          	addi	a4,s0,16
   135fe:	87a2                	mv	a5,s0
   13600:	0789                	addi	a5,a5,2
   13602:	fe079f23          	sh	zero,-2(a5)
   13606:	fee79de3          	bne	a5,a4,13600 <emul+0x222>
   1360a:	77f1                	lui	a5,0xffffc
   1360c:	00f41823          	sh	a5,16(s0)
   13610:	77e1                	lui	a5,0xffff8
   13612:	fff7c793          	not	a5,a5
   13616:	00f41923          	sh	a5,18(s0)
   1361a:	bf3d                	j	13558 <emul+0x17a>
   1361c:	01290693          	addi	a3,s2,18
   13620:	b535                	j	1344c <emul+0x6e>
   13622:	874e                	mv	a4,s3
   13624:	894e                	mv	s2,s3
   13626:	105c                	addi	a5,sp,36
   13628:	1834                	addi	a3,sp,56
   1362a:	ef11                	bnez	a4,13646 <emul+0x268>
   1362c:	10d78d63          	beq	a5,a3,13746 <emul+0x368>
   13630:	0007d703          	lhu	a4,0(a5) # ffffffffffff8000 <__BSS_END__+0xfffffffffffd8968>
   13634:	0789                	addi	a5,a5,2
   13636:	db7d                	beqz	a4,1362c <emul+0x24e>
   13638:	1008                	addi	a0,sp,32
   1363a:	d9aff0ef          	jal	ra,12bd4 <enormlz>
   1363e:	02215703          	lhu	a4,34(sp)
   13642:	40a98933          	sub	s2,s3,a0
   13646:	02015783          	lhu	a5,32(sp)
   1364a:	038a0993          	addi	s3,s4,56
   1364e:	02ea1b23          	sh	a4,54(s4)
   13652:	02fa1a23          	sh	a5,52(s4)
   13656:	04ea0713          	addi	a4,s4,78
   1365a:	87ce                	mv	a5,s3
   1365c:	00079023          	sh	zero,0(a5)
   13660:	0789                	addi	a5,a5,2
   13662:	fef71de3          	bne	a4,a5,1365c <emul+0x27e>
   13666:	04ca0c13          	addi	s8,s4,76
   1366a:	4b81                	li	s7,0
   1366c:	01810a93          	addi	s5,sp,24
   13670:	00410c93          	addi	s9,sp,4
   13674:	04210b13          	addi	s6,sp,66
   13678:	000ad503          	lhu	a0,0(s5)
   1367c:	1af9                	addi	s5,s5,-2
   1367e:	e935                	bnez	a0,136f2 <emul+0x314>
   13680:	04ca5783          	lhu	a5,76(s4)
   13684:	8762                	mv	a4,s8
   13686:	00fbebb3          	or	s7,s7,a5
   1368a:	ffe75603          	lhu	a2,-2(a4) # 7ffe <done+0x7fbe>
   1368e:	1779                	addi	a4,a4,-2
   13690:	00c71123          	sh	a2,2(a4)
   13694:	fee99be3          	bne	s3,a4,1368a <emul+0x2ac>
   13698:	020a1c23          	sh	zero,56(s4)
   1369c:	fd9a9ee3          	bne	s5,s9,13678 <emul+0x29a>
   136a0:	034a0713          	addi	a4,s4,52
   136a4:	101c                	addi	a5,sp,32
   136a6:	03a10613          	addi	a2,sp,58
   136aa:	00075683          	lhu	a3,0(a4)
   136ae:	0789                	addi	a5,a5,2
   136b0:	0709                	addi	a4,a4,2
   136b2:	fed79f23          	sh	a3,-2(a5)
   136b6:	fef61ae3          	bne	a2,a5,136aa <emul+0x2cc>
   136ba:	76f1                	lui	a3,0xffffc
   136bc:	94ca                	add	s1,s1,s2
   136be:	0689                	addi	a3,a3,2
   136c0:	85de                	mv	a1,s7
   136c2:	1008                	addi	a0,sp,32
   136c4:	87d2                	mv	a5,s4
   136c6:	04000713          	li	a4,64
   136ca:	96a6                	add	a3,a3,s1
   136cc:	4601                	li	a2,0
   136ce:	913ff0ef          	jal	ra,12fe0 <emdnorm>
   136d2:	02015703          	lhu	a4,32(sp)
   136d6:	00015783          	lhu	a5,0(sp)
   136da:	85a2                	mv	a1,s0
   136dc:	1008                	addi	a0,sp,32
   136de:	8f99                	sub	a5,a5,a4
   136e0:	00f037b3          	snez	a5,a5
   136e4:	40f007bb          	negw	a5,a5
   136e8:	02f11023          	sh	a5,32(sp)
   136ec:	c5cff0ef          	jal	ra,12b48 <emovo.constprop.0>
   136f0:	b5a5                	j	13558 <emul+0x17a>
   136f2:	0090                	addi	a2,sp,64
   136f4:	100c                	addi	a1,sp,32
   136f6:	bdeff0ef          	jal	ra,12ad4 <m16m>
   136fa:	8562                	mv	a0,s8
   136fc:	4581                	li	a1,0
   136fe:	08b0                	addi	a2,sp,88
   13700:	00055783          	lhu	a5,0(a0)
   13704:	00065703          	lhu	a4,0(a2)
   13708:	1579                	addi	a0,a0,-2
   1370a:	1679                	addi	a2,a2,-2
   1370c:	973e                	add	a4,a4,a5
   1370e:	972e                	add	a4,a4,a1
   13710:	01075593          	srli	a1,a4,0x10
   13714:	00e51123          	sh	a4,2(a0)
   13718:	8985                	andi	a1,a1,1
   1371a:	ff6613e3          	bne	a2,s6,13700 <emul+0x322>
   1371e:	b78d                	j	13680 <emul+0x2a2>
   13720:	4781                	li	a5,0
   13722:	bd51                	j	135b6 <emul+0x1d8>
   13724:	4881                	li	a7,0
   13726:	b379                	j	134b4 <emul+0xd6>
   13728:	67a1                	lui	a5,0x8
   1372a:	17fd                	addi	a5,a5,-1
   1372c:	eef588e3          	beq	a1,a5,1361c <emul+0x23e>
   13730:	0124d503          	lhu	a0,18(s1)
   13734:	b385                	j	13494 <emul+0xb6>
   13736:	01440793          	addi	a5,s0,20
   1373a:	0409                	addi	s0,s0,2
   1373c:	fe041f23          	sh	zero,-2(s0)
   13740:	fe879de3          	bne	a5,s0,1373a <emul+0x35c>
   13744:	bd11                	j	13558 <emul+0x17a>
   13746:	01440793          	addi	a5,s0,20
   1374a:	0409                	addi	s0,s0,2
   1374c:	fe041f23          	sh	zero,-2(s0)
   13750:	fe879de3          	bne	a5,s0,1374a <emul+0x36c>
   13754:	b511                	j	13558 <emul+0x17a>
   13756:	0124d503          	lhu	a0,18(s1)
   1375a:	67a1                	lui	a5,0x8
   1375c:	17fd                	addi	a5,a5,-1
   1375e:	00f575b3          	and	a1,a0,a5
   13762:	01248993          	addi	s3,s1,18
   13766:	882e                	mv	a6,a1
   13768:	e0f59de3          	bne	a1,a5,13582 <emul+0x1a4>
   1376c:	b325                	j	13494 <emul+0xb6>

000000000001376e <ediv>:
   1376e:	01255783          	lhu	a5,18(a0)
   13772:	7115                	addi	sp,sp,-224
   13774:	e9a2                	sd	s0,208(sp)
   13776:	fff7c793          	not	a5,a5
   1377a:	e5a6                	sd	s1,200(sp)
   1377c:	e1ca                	sd	s2,192(sp)
   1377e:	fd4e                	sd	s3,184(sp)
   13780:	ed86                	sd	ra,216(sp)
   13782:	f952                	sd	s4,176(sp)
   13784:	f556                	sd	s5,168(sp)
   13786:	f15a                	sd	s6,160(sp)
   13788:	ed5e                	sd	s7,152(sp)
   1378a:	e962                	sd	s8,144(sp)
   1378c:	e566                	sd	s9,136(sp)
   1378e:	e16a                	sd	s10,128(sp)
   13790:	fcee                	sd	s11,120(sp)
   13792:	03179713          	slli	a4,a5,0x31
   13796:	84aa                	mv	s1,a0
   13798:	892e                	mv	s2,a1
   1379a:	8432                	mv	s0,a2
   1379c:	89b6                	mv	s3,a3
   1379e:	eb19                	bnez	a4,137b4 <ediv+0x46>
   137a0:	01250693          	addi	a3,a0,18
   137a4:	87aa                	mv	a5,a0
   137a6:	0007d703          	lhu	a4,0(a5) # 8000 <done+0x7fc0>
   137aa:	0789                	addi	a5,a5,2
   137ac:	24071163          	bnez	a4,139ee <ediv+0x280>
   137b0:	fed79be3          	bne	a5,a3,137a6 <ediv+0x38>
   137b4:	01295783          	lhu	a5,18(s2)
   137b8:	fff7c793          	not	a5,a5
   137bc:	03179713          	slli	a4,a5,0x31
   137c0:	eb19                	bnez	a4,137d6 <ediv+0x68>
   137c2:	01290693          	addi	a3,s2,18
   137c6:	87ca                	mv	a5,s2
   137c8:	0007d703          	lhu	a4,0(a5)
   137cc:	0789                	addi	a5,a5,2
   137ce:	22071b63          	bnez	a4,13a04 <ediv+0x296>
   137d2:	fed79be3          	bne	a5,a3,137c8 <ediv+0x5a>
   137d6:	00009597          	auipc	a1,0x9
   137da:	13a58593          	addi	a1,a1,314 # 1c910 <ezero>
   137de:	8526                	mv	a0,s1
   137e0:	f1cff0ef          	jal	ra,12efc <ecmp>
   137e4:	22050b63          	beqz	a0,13a1a <ediv+0x2ac>
   137e8:	0124d603          	lhu	a2,18(s1)
   137ec:	01295583          	lhu	a1,18(s2)
   137f0:	67a1                	lui	a5,0x8
   137f2:	17fd                	addi	a5,a5,-1
   137f4:	00f67533          	and	a0,a2,a5
   137f8:	00f5f6b3          	and	a3,a1,a5
   137fc:	06f51a63          	bne	a0,a5,13870 <ediv+0x102>
   13800:	01248813          	addi	a6,s1,18
   13804:	87a6                	mv	a5,s1
   13806:	0007d703          	lhu	a4,0(a5) # 8000 <done+0x7fc0>
   1380a:	0789                	addi	a5,a5,2
   1380c:	e325                	bnez	a4,1386c <ediv+0xfe>
   1380e:	ff079ce3          	bne	a5,a6,13806 <ediv+0x98>
   13812:	67a1                	lui	a5,0x8
   13814:	17fd                	addi	a5,a5,-1
   13816:	20f69e63          	bne	a3,a5,13a32 <ediv+0x2c4>
   1381a:	01290693          	addi	a3,s2,18
   1381e:	87ca                	mv	a5,s2
   13820:	0007d703          	lhu	a4,0(a5) # 8000 <done+0x7fc0>
   13824:	0789                	addi	a5,a5,2
   13826:	36071663          	bnez	a4,13b92 <ediv+0x424>
   1382a:	fed79be3          	bne	a5,a3,13820 <ediv+0xb2>
   1382e:	01040713          	addi	a4,s0,16
   13832:	87a2                	mv	a5,s0
   13834:	0789                	addi	a5,a5,2
   13836:	fe079f23          	sh	zero,-2(a5)
   1383a:	fee79de3          	bne	a5,a4,13834 <ediv+0xc6>
   1383e:	77f1                	lui	a5,0xffffc
   13840:	00f41823          	sh	a5,16(s0)
   13844:	77e1                	lui	a5,0xffff8
   13846:	fff7c793          	not	a5,a5
   1384a:	00f41923          	sh	a5,18(s0)
   1384e:	60ee                	ld	ra,216(sp)
   13850:	644e                	ld	s0,208(sp)
   13852:	64ae                	ld	s1,200(sp)
   13854:	690e                	ld	s2,192(sp)
   13856:	79ea                	ld	s3,184(sp)
   13858:	7a4a                	ld	s4,176(sp)
   1385a:	7aaa                	ld	s5,168(sp)
   1385c:	7b0a                	ld	s6,160(sp)
   1385e:	6bea                	ld	s7,152(sp)
   13860:	6c4a                	ld	s8,144(sp)
   13862:	6caa                	ld	s9,136(sp)
   13864:	6d0a                	ld	s10,128(sp)
   13866:	7de6                	ld	s11,120(sp)
   13868:	612d                	addi	sp,sp,224
   1386a:	8082                	ret
   1386c:	67a1                	lui	a5,0x8
   1386e:	17fd                	addi	a5,a5,-1
   13870:	1cf68963          	beq	a3,a5,13a42 <ediv+0x2d4>
   13874:	8526                	mv	a0,s1
   13876:	080c                	addi	a1,sp,16
   13878:	deeff0ef          	jal	ra,12e66 <emovi>
   1387c:	180c                	addi	a1,sp,48
   1387e:	854a                	mv	a0,s2
   13880:	de6ff0ef          	jal	ra,12e66 <emovi>
   13884:	03215a83          	lhu	s5,50(sp)
   13888:	01215483          	lhu	s1,18(sp)
   1388c:	220a8063          	beqz	s5,13aac <ediv+0x33e>
   13890:	e456                	sd	s5,8(sp)
   13892:	8626                	mv	a2,s1
   13894:	e026                	sd	s1,0(sp)
   13896:	085c                	addi	a5,sp,20
   13898:	1034                	addi	a3,sp,40
   1389a:	ee09                	bnez	a2,138b4 <ediv+0x146>
   1389c:	2cd78563          	beq	a5,a3,13b66 <ediv+0x3f8>
   138a0:	0007d703          	lhu	a4,0(a5) # 8000 <done+0x7fc0>
   138a4:	0789                	addi	a5,a5,2
   138a6:	db7d                	beqz	a4,1389c <ediv+0x12e>
   138a8:	0808                	addi	a0,sp,16
   138aa:	b2aff0ef          	jal	ra,12bd4 <enormlz>
   138ae:	40a487b3          	sub	a5,s1,a0
   138b2:	e03e                	sd	a5,0(sp)
   138b4:	5742                	lw	a4,48(sp)
   138b6:	03898a93          	addi	s5,s3,56
   138ba:	87d6                	mv	a5,s5
   138bc:	02e9aa23          	sw	a4,52(s3)
   138c0:	04e98493          	addi	s1,s3,78
   138c4:	0789                	addi	a5,a5,2
   138c6:	fe079f23          	sh	zero,-2(a5)
   138ca:	fef49de3          	bne	s1,a5,138c4 <ediv+0x156>
   138ce:	1808                	addi	a0,sp,48
   138d0:	968ff0ef          	jal	ra,12a38 <eshdn1>
   138d4:	01615b03          	lhu	s6,22(sp)
   138d8:	6941                	lui	s2,0x10
   138da:	04810c13          	addi	s8,sp,72
   138de:	010b1a13          	slli	s4,s6,0x10
   138e2:	416a0a33          	sub	s4,s4,s6
   138e6:	03210c93          	addi	s9,sp,50
   138ea:	197d                	addi	s2,s2,-1
   138ec:	06a10d13          	addi	s10,sp,106
   138f0:	05210d93          	addi	s11,sp,82
   138f4:	03415783          	lhu	a5,52(sp)
   138f8:	03615703          	lhu	a4,54(sp)
   138fc:	8bca                	mv	s7,s2
   138fe:	07c2                	slli	a5,a5,0x10
   13900:	97ba                	add	a5,a5,a4
   13902:	00fa6863          	bltu	s4,a5,13912 <ediv+0x1a4>
   13906:	0367d533          	divu	a0,a5,s6
   1390a:	03051b93          	slli	s7,a0,0x30
   1390e:	030bdb93          	srli	s7,s7,0x30
   13912:	0890                	addi	a2,sp,80
   13914:	080c                	addi	a1,sp,16
   13916:	855e                	mv	a0,s7
   13918:	9bcff0ef          	jal	ra,12ad4 <m16m>
   1391c:	1858                	addi	a4,sp,52
   1391e:	08dc                	addi	a5,sp,84
   13920:	0007d603          	lhu	a2,0(a5)
   13924:	00075683          	lhu	a3,0(a4)
   13928:	0789                	addi	a5,a5,2
   1392a:	0709                	addi	a4,a4,2
   1392c:	1ad61263          	bne	a2,a3,13ad0 <ediv+0x362>
   13930:	ffa798e3          	bne	a5,s10,13920 <ediv+0x1b2>
   13934:	4781                	li	a5,0
   13936:	10b4                	addi	a3,sp,104
   13938:	8662                	mv	a2,s8
   1393a:	00065703          	lhu	a4,0(a2)
   1393e:	0006d583          	lhu	a1,0(a3) # ffffffffffffc000 <__BSS_END__+0xfffffffffffdc968>
   13942:	1679                	addi	a2,a2,-2
   13944:	8f1d                	sub	a4,a4,a5
   13946:	8f0d                	sub	a4,a4,a1
   13948:	01075793          	srli	a5,a4,0x10
   1394c:	00e61123          	sh	a4,2(a2)
   13950:	8b85                	andi	a5,a5,1
   13952:	16f9                	addi	a3,a3,-2
   13954:	ff9613e3          	bne	a2,s9,1393a <ediv+0x1cc>
   13958:	017a9023          	sh	s7,0(s5)
   1395c:	185c                	addi	a5,sp,52
   1395e:	0027d703          	lhu	a4,2(a5)
   13962:	0789                	addi	a5,a5,2
   13964:	fee79f23          	sh	a4,-2(a5)
   13968:	ff879be3          	bne	a5,s8,1395e <ediv+0x1f0>
   1396c:	04011423          	sh	zero,72(sp)
   13970:	0a89                	addi	s5,s5,2
   13972:	f95491e3          	bne	s1,s5,138f4 <ediv+0x186>
   13976:	4701                	li	a4,0
   13978:	185c                	addi	a5,sp,52
   1397a:	04a10613          	addi	a2,sp,74
   1397e:	0007d683          	lhu	a3,0(a5)
   13982:	0789                	addi	a5,a5,2
   13984:	8f55                	or	a4,a4,a3
   13986:	fec79ce3          	bne	a5,a2,1397e <ediv+0x210>
   1398a:	0107179b          	slliw	a5,a4,0x10
   1398e:	4107d79b          	sraiw	a5,a5,0x10
   13992:	c391                	beqz	a5,13996 <ediv+0x228>
   13994:	4705                	li	a4,1
   13996:	03071593          	slli	a1,a4,0x30
   1399a:	91c1                	srli	a1,a1,0x30
   1399c:	03498713          	addi	a4,s3,52
   139a0:	181c                	addi	a5,sp,48
   139a2:	00075683          	lhu	a3,0(a4)
   139a6:	0789                	addi	a5,a5,2
   139a8:	0709                	addi	a4,a4,2
   139aa:	fed79f23          	sh	a3,-2(a5)
   139ae:	fef61ae3          	bne	a2,a5,139a2 <ediv+0x234>
   139b2:	67a2                	ld	a5,8(sp)
   139b4:	6702                	ld	a4,0(sp)
   139b6:	6691                	lui	a3,0x4
   139b8:	16fd                	addi	a3,a3,-1
   139ba:	40e78ab3          	sub	s5,a5,a4
   139be:	1808                	addi	a0,sp,48
   139c0:	87ce                	mv	a5,s3
   139c2:	04000713          	li	a4,64
   139c6:	96d6                	add	a3,a3,s5
   139c8:	4601                	li	a2,0
   139ca:	e16ff0ef          	jal	ra,12fe0 <emdnorm>
   139ce:	03015703          	lhu	a4,48(sp)
   139d2:	01015783          	lhu	a5,16(sp)
   139d6:	85a2                	mv	a1,s0
   139d8:	1808                	addi	a0,sp,48
   139da:	8f99                	sub	a5,a5,a4
   139dc:	00f037b3          	snez	a5,a5
   139e0:	40f007bb          	negw	a5,a5
   139e4:	02f11823          	sh	a5,48(sp)
   139e8:	960ff0ef          	jal	ra,12b48 <emovo.constprop.0>
   139ec:	b58d                	j	1384e <ediv+0xe0>
   139ee:	01448713          	addi	a4,s1,20
   139f2:	0004d783          	lhu	a5,0(s1)
   139f6:	0489                	addi	s1,s1,2
   139f8:	0409                	addi	s0,s0,2
   139fa:	fef41f23          	sh	a5,-2(s0)
   139fe:	fee49ae3          	bne	s1,a4,139f2 <ediv+0x284>
   13a02:	b5b1                	j	1384e <ediv+0xe0>
   13a04:	01490713          	addi	a4,s2,20 # 10014 <done+0xffd4>
   13a08:	00095783          	lhu	a5,0(s2)
   13a0c:	0909                	addi	s2,s2,2
   13a0e:	0409                	addi	s0,s0,2
   13a10:	fef41f23          	sh	a5,-2(s0)
   13a14:	fee91ae3          	bne	s2,a4,13a08 <ediv+0x29a>
   13a18:	bd1d                	j	1384e <ediv+0xe0>
   13a1a:	00009597          	auipc	a1,0x9
   13a1e:	ef658593          	addi	a1,a1,-266 # 1c910 <ezero>
   13a22:	854a                	mv	a0,s2
   13a24:	cd8ff0ef          	jal	ra,12efc <ecmp>
   13a28:	dc0510e3          	bnez	a0,137e8 <ediv+0x7a>
   13a2c:	b509                	j	1382e <ediv+0xc0>
   13a2e:	e40803e3          	beqz	a6,13874 <ediv+0x106>
   13a32:	01440793          	addi	a5,s0,20
   13a36:	0409                	addi	s0,s0,2
   13a38:	fe041f23          	sh	zero,-2(s0)
   13a3c:	fef41de3          	bne	s0,a5,13a36 <ediv+0x2c8>
   13a40:	b539                	j	1384e <ediv+0xe0>
   13a42:	4801                	li	a6,0
   13a44:	01290693          	addi	a3,s2,18
   13a48:	87ca                	mv	a5,s2
   13a4a:	0007d703          	lhu	a4,0(a5)
   13a4e:	0789                	addi	a5,a5,2
   13a50:	ff79                	bnez	a4,13a2e <ediv+0x2c0>
   13a52:	fed79ce3          	bne	a5,a3,13a4a <ediv+0x2dc>
   13a56:	67a1                	lui	a5,0x8
   13a58:	17fd                	addi	a5,a5,-1
   13a5a:	04f50063          	beq	a0,a5,13a9a <ediv+0x32c>
   13a5e:	823d                	srli	a2,a2,0xf
   13a60:	00095783          	lhu	a5,0(s2)
   13a64:	0909                	addi	s2,s2,2
   13a66:	12079263          	bnez	a5,13b8a <ediv+0x41c>
   13a6a:	fed91be3          	bne	s2,a3,13a60 <ediv+0x2f2>
   13a6e:	81bd                	srli	a1,a1,0xf
   13a70:	00c58363          	beq	a1,a2,13a76 <ediv+0x308>
   13a74:	6721                	lui	a4,0x8
   13a76:	00e41923          	sh	a4,18(s0)
   13a7a:	87a2                	mv	a5,s0
   13a7c:	01240713          	addi	a4,s0,18
   13a80:	0789                	addi	a5,a5,2
   13a82:	fe079f23          	sh	zero,-2(a5) # 7ffe <done+0x7fbe>
   13a86:	fee79de3          	bne	a5,a4,13a80 <ediv+0x312>
   13a8a:	01245783          	lhu	a5,18(s0)
   13a8e:	6721                	lui	a4,0x8
   13a90:	177d                	addi	a4,a4,-1
   13a92:	8fd9                	or	a5,a5,a4
   13a94:	00f41923          	sh	a5,18(s0)
   13a98:	bb5d                	j	1384e <ediv+0xe0>
   13a9a:	01248513          	addi	a0,s1,18
   13a9e:	0004d783          	lhu	a5,0(s1)
   13aa2:	0489                	addi	s1,s1,2
   13aa4:	e7ed                	bnez	a5,13b8e <ediv+0x420>
   13aa6:	fea49ce3          	bne	s1,a0,13a9e <ediv+0x330>
   13aaa:	bf55                	j	13a5e <ediv+0x2f0>
   13aac:	185c                	addi	a5,sp,52
   13aae:	04810c13          	addi	s8,sp,72
   13ab2:	0afc0263          	beq	s8,a5,13b56 <ediv+0x3e8>
   13ab6:	0007d703          	lhu	a4,0(a5)
   13aba:	0789                	addi	a5,a5,2
   13abc:	db7d                	beqz	a4,13ab2 <ediv+0x344>
   13abe:	1808                	addi	a0,sp,48
   13ac0:	914ff0ef          	jal	ra,12bd4 <enormlz>
   13ac4:	40a007b3          	neg	a5,a0
   13ac8:	01215603          	lhu	a2,18(sp)
   13acc:	e43e                	sd	a5,8(sp)
   13ace:	b3d9                	j	13894 <ediv+0x126>
   13ad0:	e6c6f2e3          	bgeu	a3,a2,13934 <ediv+0x1c6>
   13ad4:	fffb879b          	addiw	a5,s7,-1
   13ad8:	03079893          	slli	a7,a5,0x30
   13adc:	0308d893          	srli	a7,a7,0x30
   13ae0:	4681                	li	a3,0
   13ae2:	1030                	addi	a2,sp,40
   13ae4:	10b8                	addi	a4,sp,104
   13ae6:	00075783          	lhu	a5,0(a4) # 8000 <done+0x7fc0>
   13aea:	00065583          	lhu	a1,0(a2)
   13aee:	1779                	addi	a4,a4,-2
   13af0:	8f95                	sub	a5,a5,a3
   13af2:	8f8d                	sub	a5,a5,a1
   13af4:	0107d693          	srli	a3,a5,0x10
   13af8:	00f71123          	sh	a5,2(a4)
   13afc:	8a85                	andi	a3,a3,1
   13afe:	1679                	addi	a2,a2,-2
   13b00:	ffb713e3          	bne	a4,s11,13ae6 <ediv+0x378>
   13b04:	1858                	addi	a4,sp,52
   13b06:	08dc                	addi	a5,sp,84
   13b08:	0007d603          	lhu	a2,0(a5)
   13b0c:	00075683          	lhu	a3,0(a4)
   13b10:	0789                	addi	a5,a5,2
   13b12:	0709                	addi	a4,a4,2
   13b14:	00d61663          	bne	a2,a3,13b20 <ediv+0x3b2>
   13b18:	ffa798e3          	bne	a5,s10,13b08 <ediv+0x39a>
   13b1c:	8bc6                	mv	s7,a7
   13b1e:	bd19                	j	13934 <ediv+0x1c6>
   13b20:	fec6fee3          	bgeu	a3,a2,13b1c <ediv+0x3ae>
   13b24:	ffeb851b          	addiw	a0,s7,-2
   13b28:	03051b93          	slli	s7,a0,0x30
   13b2c:	030bdb93          	srli	s7,s7,0x30
   13b30:	4681                	li	a3,0
   13b32:	1030                	addi	a2,sp,40
   13b34:	10b8                	addi	a4,sp,104
   13b36:	00075783          	lhu	a5,0(a4)
   13b3a:	00065583          	lhu	a1,0(a2)
   13b3e:	1779                	addi	a4,a4,-2
   13b40:	8f95                	sub	a5,a5,a3
   13b42:	8f8d                	sub	a5,a5,a1
   13b44:	0107d693          	srli	a3,a5,0x10
   13b48:	00f71123          	sh	a5,2(a4)
   13b4c:	8a85                	andi	a3,a3,1
   13b4e:	1679                	addi	a2,a2,-2
   13b50:	ffb713e3          	bne	a4,s11,13b36 <ediv+0x3c8>
   13b54:	b3c5                	j	13934 <ediv+0x1c6>
   13b56:	01440793          	addi	a5,s0,20
   13b5a:	0409                	addi	s0,s0,2
   13b5c:	fe041f23          	sh	zero,-2(s0)
   13b60:	fef41de3          	bne	s0,a5,13b5a <ediv+0x3ec>
   13b64:	b1ed                	j	1384e <ediv+0xe0>
   13b66:	01015703          	lhu	a4,16(sp)
   13b6a:	03015783          	lhu	a5,48(sp)
   13b6e:	00f70363          	beq	a4,a5,13b74 <ediv+0x406>
   13b72:	6621                	lui	a2,0x8
   13b74:	00c41923          	sh	a2,18(s0)
   13b78:	01240713          	addi	a4,s0,18
   13b7c:	87a2                	mv	a5,s0
   13b7e:	0789                	addi	a5,a5,2
   13b80:	fe079f23          	sh	zero,-2(a5)
   13b84:	fef71de3          	bne	a4,a5,13b7e <ediv+0x410>
   13b88:	b709                	j	13a8a <ediv+0x31c>
   13b8a:	4581                	li	a1,0
   13b8c:	b5d5                	j	13a70 <ediv+0x302>
   13b8e:	4601                	li	a2,0
   13b90:	bdc1                	j	13a60 <ediv+0x2f2>
   13b92:	4805                	li	a6,1
   13b94:	bd55                	j	13a48 <ediv+0x2da>

0000000000013b96 <e113toe.isra.0>:
   13b96:	7179                	addi	sp,sp,-48
   13b98:	f022                	sd	s0,32(sp)
   13b9a:	f406                	sd	ra,40(sp)
   13b9c:	842e                	mv	s0,a1
   13b9e:	878a                	mv	a5,sp
   13ba0:	01a10713          	addi	a4,sp,26
   13ba4:	0789                	addi	a5,a5,2
   13ba6:	fe079f23          	sh	zero,-2(a5)
   13baa:	fee79de3          	bne	a5,a4,13ba4 <e113toe.isra.0+0xe>
   13bae:	00e55783          	lhu	a5,14(a0)
   13bb2:	00f7d713          	srli	a4,a5,0xf
   13bb6:	eb39                	bnez	a4,13c0c <e113toe.isra.0+0x76>
   13bb8:	6721                	lui	a4,0x8
   13bba:	177d                	addi	a4,a4,-1
   13bbc:	00e7f6b3          	and	a3,a5,a4
   13bc0:	00011023          	sh	zero,0(sp)
   13bc4:	8636                	mv	a2,a3
   13bc6:	04e68d63          	beq	a3,a4,13c20 <e113toe.isra.0+0x8a>
   13bca:	00e50793          	addi	a5,a0,14
   13bce:	00d11123          	sh	a3,2(sp)
   13bd2:	00610713          	addi	a4,sp,6
   13bd6:	ffe7d683          	lhu	a3,-2(a5)
   13bda:	17f9                	addi	a5,a5,-2
   13bdc:	0709                	addi	a4,a4,2
   13bde:	fed71f23          	sh	a3,-2(a4) # 7ffe <done+0x7fbe>
   13be2:	fef51ae3          	bne	a0,a5,13bd6 <e113toe.isra.0+0x40>
   13be6:	ea19                	bnez	a2,13bfc <e113toe.isra.0+0x66>
   13be8:	00011223          	sh	zero,4(sp)
   13bec:	85a2                	mv	a1,s0
   13bee:	850a                	mv	a0,sp
   13bf0:	f59fe0ef          	jal	ra,12b48 <emovo.constprop.0>
   13bf4:	70a2                	ld	ra,40(sp)
   13bf6:	7402                	ld	s0,32(sp)
   13bf8:	6145                	addi	sp,sp,48
   13bfa:	8082                	ret
   13bfc:	4785                	li	a5,1
   13bfe:	55fd                	li	a1,-1
   13c00:	850a                	mv	a0,sp
   13c02:	00f11223          	sh	a5,4(sp)
   13c06:	8d8ff0ef          	jal	ra,12cde <eshift.part.0>
   13c0a:	b7cd                	j	13bec <e113toe.isra.0+0x56>
   13c0c:	577d                	li	a4,-1
   13c0e:	00e11023          	sh	a4,0(sp)
   13c12:	6721                	lui	a4,0x8
   13c14:	177d                	addi	a4,a4,-1
   13c16:	00e7f6b3          	and	a3,a5,a4
   13c1a:	8636                	mv	a2,a3
   13c1c:	fae697e3          	bne	a3,a4,13bca <e113toe.isra.0+0x34>
   13c20:	87aa                	mv	a5,a0
   13c22:	00e50693          	addi	a3,a0,14
   13c26:	0007d703          	lhu	a4,0(a5)
   13c2a:	0789                	addi	a5,a5,2
   13c2c:	ef21                	bnez	a4,13c84 <e113toe.isra.0+0xee>
   13c2e:	fef69ce3          	bne	a3,a5,13c26 <e113toe.isra.0+0x90>
   13c32:	01440713          	addi	a4,s0,20
   13c36:	87a2                	mv	a5,s0
   13c38:	0789                	addi	a5,a5,2
   13c3a:	fe079f23          	sh	zero,-2(a5)
   13c3e:	fee79de3          	bne	a5,a4,13c38 <e113toe.isra.0+0xa2>
   13c42:	01240713          	addi	a4,s0,18
   13c46:	87a2                	mv	a5,s0
   13c48:	0789                	addi	a5,a5,2
   13c4a:	fe079f23          	sh	zero,-2(a5)
   13c4e:	fef71de3          	bne	a4,a5,13c48 <e113toe.isra.0+0xb2>
   13c52:	01245783          	lhu	a5,18(s0)
   13c56:	66a1                	lui	a3,0x8
   13c58:	16fd                	addi	a3,a3,-1
   13c5a:	8fd5                	or	a5,a5,a3
   13c5c:	17c2                	slli	a5,a5,0x30
   13c5e:	93c1                	srli	a5,a5,0x30
   13c60:	00f41923          	sh	a5,18(s0)
   13c64:	00e51683          	lh	a3,14(a0)
   13c68:	f806d6e3          	bgez	a3,13bf4 <e113toe.isra.0+0x5e>
   13c6c:	86a2                	mv	a3,s0
   13c6e:	0006d603          	lhu	a2,0(a3) # 8000 <done+0x7fc0>
   13c72:	0689                	addi	a3,a3,2
   13c74:	f241                	bnez	a2,13bf4 <e113toe.isra.0+0x5e>
   13c76:	fed71ce3          	bne	a4,a3,13c6e <e113toe.isra.0+0xd8>
   13c7a:	7761                	lui	a4,0xffff8
   13c7c:	8fb9                	xor	a5,a5,a4
   13c7e:	00f41923          	sh	a5,18(s0)
   13c82:	bf8d                	j	13bf4 <e113toe.isra.0+0x5e>
   13c84:	01040713          	addi	a4,s0,16
   13c88:	87a2                	mv	a5,s0
   13c8a:	0789                	addi	a5,a5,2
   13c8c:	fe079f23          	sh	zero,-2(a5)
   13c90:	fee79de3          	bne	a5,a4,13c8a <e113toe.isra.0+0xf4>
   13c94:	77f1                	lui	a5,0xffffc
   13c96:	00f41823          	sh	a5,16(s0)
   13c9a:	77e1                	lui	a5,0xffff8
   13c9c:	fff7c793          	not	a5,a5
   13ca0:	00f41923          	sh	a5,18(s0)
   13ca4:	bf81                	j	13bf4 <e113toe.isra.0+0x5e>

0000000000013ca6 <_ldtoa_r>:
   13ca6:	db010113          	addi	sp,sp,-592
   13caa:	09100313          	li	t1,145
   13cae:	e4b2                	sd	a2,72(sp)
   13cb0:	06053e03          	ld	t3,96(a0)
   13cb4:	02031613          	slli	a2,t1,0x20
