
a.out:     file format elf64-littleriscv


Disassembly of section .text:

00000000bb000000 <main>:
    bb000000:	42bd                	li	t0,15
    bb000002:	3a029073          	csrw	pmpcfg0,t0
    bb000006:	52fd                	li	t0,-1
    bb000008:	3b029073          	csrw	pmpaddr0,t0
    bb00000c:	6285                	lui	t0,0x1
    bb00000e:	8002829b          	addiw	t0,t0,-2048
    bb000012:	30029073          	csrw	mstatus,t0
    bb000016:	00001297          	auipc	t0,0x1
    bb00001a:	fea28293          	addi	t0,t0,-22 # bb001000 <supervisor>
    bb00001e:	34129073          	csrw	mepc,t0
    bb000022:	30200073          	mret
    bb000026:	00000013          	nop
    bb00002a:	00000013          	nop
    bb00002e:	00000013          	nop
    bb000032:	00000013          	nop
    bb000036:	00000013          	nop
    bb00003a:	00000013          	nop
    bb00003e:	00000013          	nop
    bb000042:	00000013          	nop
    bb000046:	00000013          	nop
    bb00004a:	00000013          	nop
    bb00004e:	00000013          	nop
    bb000052:	00000013          	nop
    bb000056:	00000013          	nop
    bb00005a:	00000013          	nop
    bb00005e:	00000013          	nop
    bb000062:	00000013          	nop
    bb000066:	00000013          	nop
    bb00006a:	00000013          	nop
    bb00006e:	00000013          	nop
    bb000072:	00000013          	nop
    bb000076:	00000013          	nop
    bb00007a:	00000013          	nop
    bb00007e:	00000013          	nop
    bb000082:	00000013          	nop
    bb000086:	00000013          	nop
    bb00008a:	00000013          	nop
    bb00008e:	00000013          	nop
    bb000092:	00000013          	nop
    bb000096:	00000013          	nop
    bb00009a:	00000013          	nop
    bb00009e:	00000013          	nop
    bb0000a2:	00000013          	nop
    bb0000a6:	00000013          	nop
    bb0000aa:	00000013          	nop
    bb0000ae:	00000013          	nop
    bb0000b2:	00000013          	nop
    bb0000b6:	00000013          	nop
    bb0000ba:	00000013          	nop
    bb0000be:	00000013          	nop
    bb0000c2:	00000013          	nop
    bb0000c6:	00000013          	nop
    bb0000ca:	00000013          	nop
    bb0000ce:	00000013          	nop
    bb0000d2:	00000013          	nop
    bb0000d6:	00000013          	nop
    bb0000da:	00000013          	nop
    bb0000de:	00000013          	nop
    bb0000e2:	00000013          	nop
    bb0000e6:	00000013          	nop
    bb0000ea:	00000013          	nop
    bb0000ee:	00000013          	nop
    bb0000f2:	00000013          	nop
    bb0000f6:	00000013          	nop
    bb0000fa:	00000013          	nop
    bb0000fe:	00000013          	nop
    bb000102:	00000013          	nop
    bb000106:	00000013          	nop
    bb00010a:	00000013          	nop
    bb00010e:	00000013          	nop
    bb000112:	00000013          	nop
    bb000116:	00000013          	nop
    bb00011a:	00000013          	nop
    bb00011e:	00000013          	nop
    bb000122:	00000013          	nop
    bb000126:	00000013          	nop
    bb00012a:	00000013          	nop
    bb00012e:	00000013          	nop
    bb000132:	00000013          	nop
    bb000136:	00000013          	nop
    bb00013a:	00000013          	nop
    bb00013e:	00000013          	nop
    bb000142:	00000013          	nop
    bb000146:	00000013          	nop
    bb00014a:	00000013          	nop
    bb00014e:	00000013          	nop
    bb000152:	00000013          	nop
    bb000156:	00000013          	nop
    bb00015a:	00000013          	nop
    bb00015e:	00000013          	nop
    bb000162:	00000013          	nop
    bb000166:	00000013          	nop
    bb00016a:	00000013          	nop
    bb00016e:	00000013          	nop
    bb000172:	00000013          	nop
    bb000176:	00000013          	nop
    bb00017a:	00000013          	nop
    bb00017e:	00000013          	nop
    bb000182:	00000013          	nop
    bb000186:	00000013          	nop
    bb00018a:	00000013          	nop
    bb00018e:	00000013          	nop
    bb000192:	00000013          	nop
    bb000196:	00000013          	nop
    bb00019a:	00000013          	nop
    bb00019e:	00000013          	nop
    bb0001a2:	00000013          	nop
    bb0001a6:	00000013          	nop
    bb0001aa:	00000013          	nop
    bb0001ae:	00000013          	nop
    bb0001b2:	00000013          	nop
    bb0001b6:	00000013          	nop
    bb0001ba:	00000013          	nop
    bb0001be:	00000013          	nop
    bb0001c2:	00000013          	nop
    bb0001c6:	00000013          	nop
    bb0001ca:	00000013          	nop
    bb0001ce:	00000013          	nop
    bb0001d2:	00000013          	nop
    bb0001d6:	00000013          	nop
    bb0001da:	00000013          	nop
    bb0001de:	00000013          	nop
    bb0001e2:	00000013          	nop
    bb0001e6:	00000013          	nop
    bb0001ea:	00000013          	nop
    bb0001ee:	00000013          	nop
    bb0001f2:	00000013          	nop
    bb0001f6:	00000013          	nop
    bb0001fa:	00000013          	nop
    bb0001fe:	00000013          	nop
    bb000202:	00000013          	nop
    bb000206:	00000013          	nop
    bb00020a:	00000013          	nop
    bb00020e:	00000013          	nop
    bb000212:	00000013          	nop
    bb000216:	00000013          	nop
    bb00021a:	00000013          	nop
    bb00021e:	00000013          	nop
    bb000222:	00000013          	nop
    bb000226:	00000013          	nop
    bb00022a:	00000013          	nop
    bb00022e:	00000013          	nop
    bb000232:	00000013          	nop
    bb000236:	00000013          	nop
    bb00023a:	00000013          	nop
    bb00023e:	00000013          	nop
    bb000242:	00000013          	nop
    bb000246:	00000013          	nop
    bb00024a:	00000013          	nop
    bb00024e:	00000013          	nop
    bb000252:	00000013          	nop
    bb000256:	00000013          	nop
    bb00025a:	00000013          	nop
    bb00025e:	00000013          	nop
    bb000262:	00000013          	nop
    bb000266:	00000013          	nop
    bb00026a:	00000013          	nop
    bb00026e:	00000013          	nop
    bb000272:	00000013          	nop
    bb000276:	00000013          	nop
    bb00027a:	00000013          	nop
    bb00027e:	00000013          	nop
    bb000282:	00000013          	nop
    bb000286:	00000013          	nop
    bb00028a:	00000013          	nop
    bb00028e:	00000013          	nop
    bb000292:	00000013          	nop
    bb000296:	00000013          	nop
    bb00029a:	00000013          	nop
    bb00029e:	00000013          	nop
    bb0002a2:	00000013          	nop
    bb0002a6:	00000013          	nop
    bb0002aa:	00000013          	nop
    bb0002ae:	00000013          	nop
    bb0002b2:	00000013          	nop
    bb0002b6:	00000013          	nop
    bb0002ba:	00000013          	nop
    bb0002be:	00000013          	nop
    bb0002c2:	00000013          	nop
    bb0002c6:	00000013          	nop
    bb0002ca:	00000013          	nop
    bb0002ce:	00000013          	nop
    bb0002d2:	00000013          	nop
    bb0002d6:	00000013          	nop
    bb0002da:	00000013          	nop
    bb0002de:	00000013          	nop
    bb0002e2:	00000013          	nop
    bb0002e6:	00000013          	nop
    bb0002ea:	00000013          	nop
    bb0002ee:	00000013          	nop
    bb0002f2:	00000013          	nop
    bb0002f6:	00000013          	nop
    bb0002fa:	00000013          	nop
    bb0002fe:	00000013          	nop
    bb000302:	00000013          	nop
    bb000306:	00000013          	nop
    bb00030a:	00000013          	nop
    bb00030e:	00000013          	nop
    bb000312:	00000013          	nop
    bb000316:	00000013          	nop
    bb00031a:	00000013          	nop
    bb00031e:	00000013          	nop
    bb000322:	00000013          	nop
    bb000326:	00000013          	nop
    bb00032a:	00000013          	nop
    bb00032e:	00000013          	nop
    bb000332:	00000013          	nop
    bb000336:	00000013          	nop
    bb00033a:	00000013          	nop
    bb00033e:	00000013          	nop
    bb000342:	00000013          	nop
    bb000346:	00000013          	nop
    bb00034a:	00000013          	nop
    bb00034e:	00000013          	nop
    bb000352:	00000013          	nop
    bb000356:	00000013          	nop
    bb00035a:	00000013          	nop
    bb00035e:	00000013          	nop
    bb000362:	00000013          	nop
    bb000366:	00000013          	nop
    bb00036a:	00000013          	nop
    bb00036e:	00000013          	nop
    bb000372:	00000013          	nop
    bb000376:	00000013          	nop
    bb00037a:	00000013          	nop
    bb00037e:	00000013          	nop
    bb000382:	00000013          	nop
    bb000386:	00000013          	nop
    bb00038a:	00000013          	nop
    bb00038e:	00000013          	nop
    bb000392:	00000013          	nop
    bb000396:	00000013          	nop
    bb00039a:	00000013          	nop
    bb00039e:	00000013          	nop
    bb0003a2:	00000013          	nop
    bb0003a6:	00000013          	nop
    bb0003aa:	00000013          	nop
    bb0003ae:	00000013          	nop
    bb0003b2:	00000013          	nop
    bb0003b6:	00000013          	nop
    bb0003ba:	00000013          	nop
    bb0003be:	00000013          	nop
    bb0003c2:	00000013          	nop
    bb0003c6:	00000013          	nop
    bb0003ca:	00000013          	nop
    bb0003ce:	00000013          	nop
    bb0003d2:	00000013          	nop
    bb0003d6:	00000013          	nop
    bb0003da:	00000013          	nop
    bb0003de:	00000013          	nop
    bb0003e2:	00000013          	nop
    bb0003e6:	00000013          	nop
    bb0003ea:	00000013          	nop
    bb0003ee:	00000013          	nop
    bb0003f2:	00000013          	nop
    bb0003f6:	00000013          	nop
    bb0003fa:	00000013          	nop
    bb0003fe:	00000013          	nop
    bb000402:	00000013          	nop
    bb000406:	00000013          	nop
    bb00040a:	00000013          	nop
    bb00040e:	00000013          	nop
    bb000412:	00000013          	nop
    bb000416:	00000013          	nop
    bb00041a:	00000013          	nop
    bb00041e:	00000013          	nop
    bb000422:	00000013          	nop
    bb000426:	00000013          	nop
    bb00042a:	00000013          	nop
    bb00042e:	00000013          	nop
    bb000432:	00000013          	nop
    bb000436:	00000013          	nop
    bb00043a:	00000013          	nop
    bb00043e:	00000013          	nop
    bb000442:	00000013          	nop
    bb000446:	00000013          	nop
    bb00044a:	00000013          	nop
    bb00044e:	00000013          	nop
    bb000452:	00000013          	nop
    bb000456:	00000013          	nop
    bb00045a:	00000013          	nop
    bb00045e:	00000013          	nop
    bb000462:	00000013          	nop
    bb000466:	00000013          	nop
    bb00046a:	00000013          	nop
    bb00046e:	00000013          	nop
    bb000472:	00000013          	nop
    bb000476:	00000013          	nop
    bb00047a:	00000013          	nop
    bb00047e:	00000013          	nop
    bb000482:	00000013          	nop
    bb000486:	00000013          	nop
    bb00048a:	00000013          	nop
    bb00048e:	00000013          	nop
    bb000492:	00000013          	nop
    bb000496:	00000013          	nop
    bb00049a:	00000013          	nop
    bb00049e:	00000013          	nop
    bb0004a2:	00000013          	nop
    bb0004a6:	00000013          	nop
    bb0004aa:	00000013          	nop
    bb0004ae:	00000013          	nop
    bb0004b2:	00000013          	nop
    bb0004b6:	00000013          	nop
    bb0004ba:	00000013          	nop
    bb0004be:	00000013          	nop
    bb0004c2:	00000013          	nop
    bb0004c6:	00000013          	nop
    bb0004ca:	00000013          	nop
    bb0004ce:	00000013          	nop
    bb0004d2:	00000013          	nop
    bb0004d6:	00000013          	nop
    bb0004da:	00000013          	nop
    bb0004de:	00000013          	nop
    bb0004e2:	00000013          	nop
    bb0004e6:	00000013          	nop
    bb0004ea:	00000013          	nop
    bb0004ee:	00000013          	nop
    bb0004f2:	00000013          	nop
    bb0004f6:	00000013          	nop
    bb0004fa:	00000013          	nop
    bb0004fe:	00000013          	nop
    bb000502:	00000013          	nop
    bb000506:	00000013          	nop
    bb00050a:	00000013          	nop
    bb00050e:	00000013          	nop
    bb000512:	00000013          	nop
    bb000516:	00000013          	nop
    bb00051a:	00000013          	nop
    bb00051e:	00000013          	nop
    bb000522:	00000013          	nop
    bb000526:	00000013          	nop
    bb00052a:	00000013          	nop
    bb00052e:	00000013          	nop
    bb000532:	00000013          	nop
    bb000536:	00000013          	nop
    bb00053a:	00000013          	nop
    bb00053e:	00000013          	nop
    bb000542:	00000013          	nop
    bb000546:	00000013          	nop
    bb00054a:	00000013          	nop
    bb00054e:	00000013          	nop
    bb000552:	00000013          	nop
    bb000556:	00000013          	nop
    bb00055a:	00000013          	nop
    bb00055e:	00000013          	nop
    bb000562:	00000013          	nop
    bb000566:	00000013          	nop
    bb00056a:	00000013          	nop
    bb00056e:	00000013          	nop
    bb000572:	00000013          	nop
    bb000576:	00000013          	nop
    bb00057a:	00000013          	nop
    bb00057e:	00000013          	nop
    bb000582:	00000013          	nop
    bb000586:	00000013          	nop
    bb00058a:	00000013          	nop
    bb00058e:	00000013          	nop
    bb000592:	00000013          	nop
    bb000596:	00000013          	nop
    bb00059a:	00000013          	nop
    bb00059e:	00000013          	nop
    bb0005a2:	00000013          	nop
    bb0005a6:	00000013          	nop
    bb0005aa:	00000013          	nop
    bb0005ae:	00000013          	nop
    bb0005b2:	00000013          	nop
    bb0005b6:	00000013          	nop
    bb0005ba:	00000013          	nop
    bb0005be:	00000013          	nop
    bb0005c2:	00000013          	nop
    bb0005c6:	00000013          	nop
    bb0005ca:	00000013          	nop
    bb0005ce:	00000013          	nop
    bb0005d2:	00000013          	nop
    bb0005d6:	00000013          	nop
    bb0005da:	00000013          	nop
    bb0005de:	00000013          	nop
    bb0005e2:	00000013          	nop
    bb0005e6:	00000013          	nop
    bb0005ea:	00000013          	nop
    bb0005ee:	00000013          	nop
    bb0005f2:	00000013          	nop
    bb0005f6:	00000013          	nop
    bb0005fa:	00000013          	nop
    bb0005fe:	00000013          	nop
    bb000602:	00000013          	nop
    bb000606:	00000013          	nop
    bb00060a:	00000013          	nop
    bb00060e:	00000013          	nop
    bb000612:	00000013          	nop
    bb000616:	00000013          	nop
    bb00061a:	00000013          	nop
    bb00061e:	00000013          	nop
    bb000622:	00000013          	nop
    bb000626:	00000013          	nop
    bb00062a:	00000013          	nop
    bb00062e:	00000013          	nop
    bb000632:	00000013          	nop
    bb000636:	00000013          	nop
    bb00063a:	00000013          	nop
    bb00063e:	00000013          	nop
    bb000642:	00000013          	nop
    bb000646:	00000013          	nop
    bb00064a:	00000013          	nop
    bb00064e:	00000013          	nop
    bb000652:	00000013          	nop
    bb000656:	00000013          	nop
    bb00065a:	00000013          	nop
    bb00065e:	00000013          	nop
    bb000662:	00000013          	nop
    bb000666:	00000013          	nop
    bb00066a:	00000013          	nop
    bb00066e:	00000013          	nop
    bb000672:	00000013          	nop
    bb000676:	00000013          	nop
    bb00067a:	00000013          	nop
    bb00067e:	00000013          	nop
    bb000682:	00000013          	nop
    bb000686:	00000013          	nop
    bb00068a:	00000013          	nop
    bb00068e:	00000013          	nop
    bb000692:	00000013          	nop
    bb000696:	00000013          	nop
    bb00069a:	00000013          	nop
    bb00069e:	00000013          	nop
    bb0006a2:	00000013          	nop
    bb0006a6:	00000013          	nop
    bb0006aa:	00000013          	nop
    bb0006ae:	00000013          	nop
    bb0006b2:	00000013          	nop
    bb0006b6:	00000013          	nop
    bb0006ba:	00000013          	nop
    bb0006be:	00000013          	nop
    bb0006c2:	00000013          	nop
    bb0006c6:	00000013          	nop
    bb0006ca:	00000013          	nop
    bb0006ce:	00000013          	nop
    bb0006d2:	00000013          	nop
    bb0006d6:	00000013          	nop
    bb0006da:	00000013          	nop
    bb0006de:	00000013          	nop
    bb0006e2:	00000013          	nop
    bb0006e6:	00000013          	nop
    bb0006ea:	00000013          	nop
    bb0006ee:	00000013          	nop
    bb0006f2:	00000013          	nop
    bb0006f6:	00000013          	nop
    bb0006fa:	00000013          	nop
    bb0006fe:	00000013          	nop
    bb000702:	00000013          	nop
    bb000706:	00000013          	nop
    bb00070a:	00000013          	nop
    bb00070e:	00000013          	nop
    bb000712:	00000013          	nop
    bb000716:	00000013          	nop
    bb00071a:	00000013          	nop
    bb00071e:	00000013          	nop
    bb000722:	00000013          	nop
    bb000726:	00000013          	nop
    bb00072a:	00000013          	nop
    bb00072e:	00000013          	nop
    bb000732:	00000013          	nop
    bb000736:	00000013          	nop
    bb00073a:	00000013          	nop
    bb00073e:	00000013          	nop
    bb000742:	00000013          	nop
    bb000746:	00000013          	nop
    bb00074a:	00000013          	nop
    bb00074e:	00000013          	nop
    bb000752:	00000013          	nop
    bb000756:	00000013          	nop
    bb00075a:	00000013          	nop
    bb00075e:	00000013          	nop
    bb000762:	00000013          	nop
    bb000766:	00000013          	nop
    bb00076a:	00000013          	nop
    bb00076e:	00000013          	nop
    bb000772:	00000013          	nop
    bb000776:	00000013          	nop
    bb00077a:	00000013          	nop
    bb00077e:	00000013          	nop
    bb000782:	00000013          	nop
    bb000786:	00000013          	nop
    bb00078a:	00000013          	nop
    bb00078e:	00000013          	nop
    bb000792:	00000013          	nop
    bb000796:	00000013          	nop
    bb00079a:	00000013          	nop
    bb00079e:	00000013          	nop
    bb0007a2:	00000013          	nop
    bb0007a6:	00000013          	nop
    bb0007aa:	00000013          	nop
    bb0007ae:	00000013          	nop
    bb0007b2:	00000013          	nop
    bb0007b6:	00000013          	nop
    bb0007ba:	00000013          	nop
    bb0007be:	00000013          	nop
    bb0007c2:	00000013          	nop
    bb0007c6:	00000013          	nop
    bb0007ca:	00000013          	nop
    bb0007ce:	00000013          	nop
    bb0007d2:	00000013          	nop
    bb0007d6:	00000013          	nop
    bb0007da:	00000013          	nop
    bb0007de:	00000013          	nop
    bb0007e2:	00000013          	nop
    bb0007e6:	00000013          	nop
    bb0007ea:	00000013          	nop
    bb0007ee:	00000013          	nop
    bb0007f2:	00000013          	nop
    bb0007f6:	00000013          	nop
    bb0007fa:	00000013          	nop
    bb0007fe:	00000013          	nop
    bb000802:	00000013          	nop
    bb000806:	00000013          	nop
    bb00080a:	00000013          	nop
    bb00080e:	00000013          	nop
    bb000812:	00000013          	nop
    bb000816:	00000013          	nop
    bb00081a:	00000013          	nop
    bb00081e:	00000013          	nop
    bb000822:	00000013          	nop
    bb000826:	00000013          	nop
    bb00082a:	00000013          	nop
    bb00082e:	00000013          	nop
    bb000832:	00000013          	nop
    bb000836:	00000013          	nop
    bb00083a:	00000013          	nop
    bb00083e:	00000013          	nop
    bb000842:	00000013          	nop
    bb000846:	00000013          	nop
    bb00084a:	00000013          	nop
    bb00084e:	00000013          	nop
    bb000852:	00000013          	nop
    bb000856:	00000013          	nop
    bb00085a:	00000013          	nop
    bb00085e:	00000013          	nop
    bb000862:	00000013          	nop
    bb000866:	00000013          	nop
    bb00086a:	00000013          	nop
    bb00086e:	00000013          	nop
    bb000872:	00000013          	nop
    bb000876:	00000013          	nop
    bb00087a:	00000013          	nop
    bb00087e:	00000013          	nop
    bb000882:	00000013          	nop
    bb000886:	00000013          	nop
    bb00088a:	00000013          	nop
    bb00088e:	00000013          	nop
    bb000892:	00000013          	nop
    bb000896:	00000013          	nop
    bb00089a:	00000013          	nop
    bb00089e:	00000013          	nop
    bb0008a2:	00000013          	nop
    bb0008a6:	00000013          	nop
    bb0008aa:	00000013          	nop
    bb0008ae:	00000013          	nop
    bb0008b2:	00000013          	nop
    bb0008b6:	00000013          	nop
    bb0008ba:	00000013          	nop
    bb0008be:	00000013          	nop
    bb0008c2:	00000013          	nop
    bb0008c6:	00000013          	nop
    bb0008ca:	00000013          	nop
    bb0008ce:	00000013          	nop
    bb0008d2:	00000013          	nop
    bb0008d6:	00000013          	nop
    bb0008da:	00000013          	nop
    bb0008de:	00000013          	nop
    bb0008e2:	00000013          	nop
    bb0008e6:	00000013          	nop
    bb0008ea:	00000013          	nop
    bb0008ee:	00000013          	nop
    bb0008f2:	00000013          	nop
    bb0008f6:	00000013          	nop
    bb0008fa:	00000013          	nop
    bb0008fe:	00000013          	nop
    bb000902:	00000013          	nop
    bb000906:	00000013          	nop
    bb00090a:	00000013          	nop
    bb00090e:	00000013          	nop
    bb000912:	00000013          	nop
    bb000916:	00000013          	nop
    bb00091a:	00000013          	nop
    bb00091e:	00000013          	nop
    bb000922:	00000013          	nop
    bb000926:	00000013          	nop
    bb00092a:	00000013          	nop
    bb00092e:	00000013          	nop
    bb000932:	00000013          	nop
    bb000936:	00000013          	nop
    bb00093a:	00000013          	nop
    bb00093e:	00000013          	nop
    bb000942:	00000013          	nop
    bb000946:	00000013          	nop
    bb00094a:	00000013          	nop
    bb00094e:	00000013          	nop
    bb000952:	00000013          	nop
    bb000956:	00000013          	nop
    bb00095a:	00000013          	nop
    bb00095e:	00000013          	nop
    bb000962:	00000013          	nop
    bb000966:	00000013          	nop
    bb00096a:	00000013          	nop
    bb00096e:	00000013          	nop
    bb000972:	00000013          	nop
    bb000976:	00000013          	nop
    bb00097a:	00000013          	nop
    bb00097e:	00000013          	nop
    bb000982:	00000013          	nop
    bb000986:	00000013          	nop
    bb00098a:	00000013          	nop
    bb00098e:	00000013          	nop
    bb000992:	00000013          	nop
    bb000996:	00000013          	nop
    bb00099a:	00000013          	nop
    bb00099e:	00000013          	nop
    bb0009a2:	00000013          	nop
    bb0009a6:	00000013          	nop
    bb0009aa:	00000013          	nop
    bb0009ae:	00000013          	nop
    bb0009b2:	00000013          	nop
    bb0009b6:	00000013          	nop
    bb0009ba:	00000013          	nop
    bb0009be:	00000013          	nop
    bb0009c2:	00000013          	nop
    bb0009c6:	00000013          	nop
    bb0009ca:	00000013          	nop
    bb0009ce:	00000013          	nop
    bb0009d2:	00000013          	nop
    bb0009d6:	00000013          	nop
    bb0009da:	00000013          	nop
    bb0009de:	00000013          	nop
    bb0009e2:	00000013          	nop
    bb0009e6:	00000013          	nop
    bb0009ea:	00000013          	nop
    bb0009ee:	00000013          	nop
    bb0009f2:	00000013          	nop
    bb0009f6:	00000013          	nop
    bb0009fa:	00000013          	nop
    bb0009fe:	00000013          	nop
    bb000a02:	00000013          	nop
    bb000a06:	00000013          	nop
    bb000a0a:	00000013          	nop
    bb000a0e:	00000013          	nop
    bb000a12:	00000013          	nop
    bb000a16:	00000013          	nop
    bb000a1a:	00000013          	nop
    bb000a1e:	00000013          	nop
    bb000a22:	00000013          	nop
    bb000a26:	00000013          	nop
    bb000a2a:	00000013          	nop
    bb000a2e:	00000013          	nop
    bb000a32:	00000013          	nop
    bb000a36:	00000013          	nop
    bb000a3a:	00000013          	nop
    bb000a3e:	00000013          	nop
    bb000a42:	00000013          	nop
    bb000a46:	00000013          	nop
    bb000a4a:	00000013          	nop
    bb000a4e:	00000013          	nop
    bb000a52:	00000013          	nop
    bb000a56:	00000013          	nop
    bb000a5a:	00000013          	nop
    bb000a5e:	00000013          	nop
    bb000a62:	00000013          	nop
    bb000a66:	00000013          	nop
    bb000a6a:	00000013          	nop
    bb000a6e:	00000013          	nop
    bb000a72:	00000013          	nop
    bb000a76:	00000013          	nop
    bb000a7a:	00000013          	nop
    bb000a7e:	00000013          	nop
    bb000a82:	00000013          	nop
    bb000a86:	00000013          	nop
    bb000a8a:	00000013          	nop
    bb000a8e:	00000013          	nop
    bb000a92:	00000013          	nop
    bb000a96:	00000013          	nop
    bb000a9a:	00000013          	nop
    bb000a9e:	00000013          	nop
    bb000aa2:	00000013          	nop
    bb000aa6:	00000013          	nop
    bb000aaa:	00000013          	nop
    bb000aae:	00000013          	nop
    bb000ab2:	00000013          	nop
    bb000ab6:	00000013          	nop
    bb000aba:	00000013          	nop
    bb000abe:	00000013          	nop
    bb000ac2:	00000013          	nop
    bb000ac6:	00000013          	nop
    bb000aca:	00000013          	nop
    bb000ace:	00000013          	nop
    bb000ad2:	00000013          	nop
    bb000ad6:	00000013          	nop
    bb000ada:	00000013          	nop
    bb000ade:	00000013          	nop
    bb000ae2:	00000013          	nop
    bb000ae6:	00000013          	nop
    bb000aea:	00000013          	nop
    bb000aee:	00000013          	nop
    bb000af2:	00000013          	nop
    bb000af6:	00000013          	nop
    bb000afa:	00000013          	nop
    bb000afe:	00000013          	nop
    bb000b02:	00000013          	nop
    bb000b06:	00000013          	nop
    bb000b0a:	00000013          	nop
    bb000b0e:	00000013          	nop
    bb000b12:	00000013          	nop
    bb000b16:	00000013          	nop
    bb000b1a:	00000013          	nop
    bb000b1e:	00000013          	nop
    bb000b22:	00000013          	nop
    bb000b26:	00000013          	nop
    bb000b2a:	00000013          	nop
    bb000b2e:	00000013          	nop
    bb000b32:	00000013          	nop
    bb000b36:	00000013          	nop
    bb000b3a:	00000013          	nop
    bb000b3e:	00000013          	nop
    bb000b42:	00000013          	nop
    bb000b46:	00000013          	nop
    bb000b4a:	00000013          	nop
    bb000b4e:	00000013          	nop
    bb000b52:	00000013          	nop
    bb000b56:	00000013          	nop
    bb000b5a:	00000013          	nop
    bb000b5e:	00000013          	nop
    bb000b62:	00000013          	nop
    bb000b66:	00000013          	nop
    bb000b6a:	00000013          	nop
    bb000b6e:	00000013          	nop
    bb000b72:	00000013          	nop
    bb000b76:	00000013          	nop
    bb000b7a:	00000013          	nop
    bb000b7e:	00000013          	nop
    bb000b82:	00000013          	nop
    bb000b86:	00000013          	nop
    bb000b8a:	00000013          	nop
    bb000b8e:	00000013          	nop
    bb000b92:	00000013          	nop
    bb000b96:	00000013          	nop
    bb000b9a:	00000013          	nop
    bb000b9e:	00000013          	nop
    bb000ba2:	00000013          	nop
    bb000ba6:	00000013          	nop
    bb000baa:	00000013          	nop
    bb000bae:	00000013          	nop
    bb000bb2:	00000013          	nop
    bb000bb6:	00000013          	nop
    bb000bba:	00000013          	nop
    bb000bbe:	00000013          	nop
    bb000bc2:	00000013          	nop
    bb000bc6:	00000013          	nop
    bb000bca:	00000013          	nop
    bb000bce:	00000013          	nop
    bb000bd2:	00000013          	nop
    bb000bd6:	00000013          	nop
    bb000bda:	00000013          	nop
    bb000bde:	00000013          	nop
    bb000be2:	00000013          	nop
    bb000be6:	00000013          	nop
    bb000bea:	00000013          	nop
    bb000bee:	00000013          	nop
    bb000bf2:	00000013          	nop
    bb000bf6:	00000013          	nop
    bb000bfa:	00000013          	nop
    bb000bfe:	00000013          	nop
    bb000c02:	00000013          	nop
    bb000c06:	00000013          	nop
    bb000c0a:	00000013          	nop
    bb000c0e:	00000013          	nop
    bb000c12:	00000013          	nop
    bb000c16:	00000013          	nop
    bb000c1a:	00000013          	nop
    bb000c1e:	00000013          	nop
    bb000c22:	00000013          	nop
    bb000c26:	00000013          	nop
    bb000c2a:	00000013          	nop
    bb000c2e:	00000013          	nop
    bb000c32:	00000013          	nop
    bb000c36:	00000013          	nop
    bb000c3a:	00000013          	nop
    bb000c3e:	00000013          	nop
    bb000c42:	00000013          	nop
    bb000c46:	00000013          	nop
    bb000c4a:	00000013          	nop
    bb000c4e:	00000013          	nop
    bb000c52:	00000013          	nop
    bb000c56:	00000013          	nop
    bb000c5a:	00000013          	nop
    bb000c5e:	00000013          	nop
    bb000c62:	00000013          	nop
    bb000c66:	00000013          	nop
    bb000c6a:	00000013          	nop
    bb000c6e:	00000013          	nop
    bb000c72:	00000013          	nop
    bb000c76:	00000013          	nop
    bb000c7a:	00000013          	nop
    bb000c7e:	00000013          	nop
    bb000c82:	00000013          	nop
    bb000c86:	00000013          	nop
    bb000c8a:	00000013          	nop
    bb000c8e:	00000013          	nop
    bb000c92:	00000013          	nop
    bb000c96:	00000013          	nop
    bb000c9a:	00000013          	nop
    bb000c9e:	00000013          	nop
    bb000ca2:	00000013          	nop
    bb000ca6:	00000013          	nop
    bb000caa:	00000013          	nop
    bb000cae:	00000013          	nop
    bb000cb2:	00000013          	nop
    bb000cb6:	00000013          	nop
    bb000cba:	00000013          	nop
    bb000cbe:	00000013          	nop
    bb000cc2:	00000013          	nop
    bb000cc6:	00000013          	nop
    bb000cca:	00000013          	nop
    bb000cce:	00000013          	nop
    bb000cd2:	00000013          	nop
    bb000cd6:	00000013          	nop
    bb000cda:	00000013          	nop
    bb000cde:	00000013          	nop
    bb000ce2:	00000013          	nop
    bb000ce6:	00000013          	nop
    bb000cea:	00000013          	nop
    bb000cee:	00000013          	nop
    bb000cf2:	00000013          	nop
    bb000cf6:	00000013          	nop
    bb000cfa:	00000013          	nop
    bb000cfe:	00000013          	nop
    bb000d02:	00000013          	nop
    bb000d06:	00000013          	nop
    bb000d0a:	00000013          	nop
    bb000d0e:	00000013          	nop
    bb000d12:	00000013          	nop
    bb000d16:	00000013          	nop
    bb000d1a:	00000013          	nop
    bb000d1e:	00000013          	nop
    bb000d22:	00000013          	nop
    bb000d26:	00000013          	nop
    bb000d2a:	00000013          	nop
    bb000d2e:	00000013          	nop
    bb000d32:	00000013          	nop
    bb000d36:	00000013          	nop
    bb000d3a:	00000013          	nop
    bb000d3e:	00000013          	nop
    bb000d42:	00000013          	nop
    bb000d46:	00000013          	nop
    bb000d4a:	00000013          	nop
    bb000d4e:	00000013          	nop
    bb000d52:	00000013          	nop
    bb000d56:	00000013          	nop
    bb000d5a:	00000013          	nop
    bb000d5e:	00000013          	nop
    bb000d62:	00000013          	nop
    bb000d66:	00000013          	nop
    bb000d6a:	00000013          	nop
    bb000d6e:	00000013          	nop
    bb000d72:	00000013          	nop
    bb000d76:	00000013          	nop
    bb000d7a:	00000013          	nop
    bb000d7e:	00000013          	nop
    bb000d82:	00000013          	nop
    bb000d86:	00000013          	nop
    bb000d8a:	00000013          	nop
    bb000d8e:	00000013          	nop
    bb000d92:	00000013          	nop
    bb000d96:	00000013          	nop
    bb000d9a:	00000013          	nop
    bb000d9e:	00000013          	nop
    bb000da2:	00000013          	nop
    bb000da6:	00000013          	nop
    bb000daa:	00000013          	nop
    bb000dae:	00000013          	nop
    bb000db2:	00000013          	nop
    bb000db6:	00000013          	nop
    bb000dba:	00000013          	nop
    bb000dbe:	00000013          	nop
    bb000dc2:	00000013          	nop
    bb000dc6:	00000013          	nop
    bb000dca:	00000013          	nop
    bb000dce:	00000013          	nop
    bb000dd2:	00000013          	nop
    bb000dd6:	00000013          	nop
    bb000dda:	00000013          	nop
    bb000dde:	00000013          	nop
    bb000de2:	00000013          	nop
    bb000de6:	00000013          	nop
    bb000dea:	00000013          	nop
    bb000dee:	00000013          	nop
    bb000df2:	00000013          	nop
    bb000df6:	00000013          	nop
    bb000dfa:	00000013          	nop
    bb000dfe:	00000013          	nop
    bb000e02:	00000013          	nop
    bb000e06:	00000013          	nop
    bb000e0a:	00000013          	nop
    bb000e0e:	00000013          	nop
    bb000e12:	00000013          	nop
    bb000e16:	00000013          	nop
    bb000e1a:	00000013          	nop
    bb000e1e:	00000013          	nop
    bb000e22:	00000013          	nop
    bb000e26:	00000013          	nop
    bb000e2a:	00000013          	nop
    bb000e2e:	00000013          	nop
    bb000e32:	00000013          	nop
    bb000e36:	00000013          	nop
    bb000e3a:	00000013          	nop
    bb000e3e:	00000013          	nop
    bb000e42:	00000013          	nop
    bb000e46:	00000013          	nop
    bb000e4a:	00000013          	nop
    bb000e4e:	00000013          	nop
    bb000e52:	00000013          	nop
    bb000e56:	00000013          	nop
    bb000e5a:	00000013          	nop
    bb000e5e:	00000013          	nop
    bb000e62:	00000013          	nop
    bb000e66:	00000013          	nop
    bb000e6a:	00000013          	nop
    bb000e6e:	00000013          	nop
    bb000e72:	00000013          	nop
    bb000e76:	00000013          	nop
    bb000e7a:	00000013          	nop
    bb000e7e:	00000013          	nop
    bb000e82:	00000013          	nop
    bb000e86:	00000013          	nop
    bb000e8a:	00000013          	nop
    bb000e8e:	00000013          	nop
    bb000e92:	00000013          	nop
    bb000e96:	00000013          	nop
    bb000e9a:	00000013          	nop
    bb000e9e:	00000013          	nop
    bb000ea2:	00000013          	nop
    bb000ea6:	00000013          	nop
    bb000eaa:	00000013          	nop
    bb000eae:	00000013          	nop
    bb000eb2:	00000013          	nop
    bb000eb6:	00000013          	nop
    bb000eba:	00000013          	nop
    bb000ebe:	00000013          	nop
    bb000ec2:	00000013          	nop
    bb000ec6:	00000013          	nop
    bb000eca:	00000013          	nop
    bb000ece:	00000013          	nop
    bb000ed2:	00000013          	nop
    bb000ed6:	00000013          	nop
    bb000eda:	00000013          	nop
    bb000ede:	00000013          	nop
    bb000ee2:	00000013          	nop
    bb000ee6:	00000013          	nop
    bb000eea:	00000013          	nop
    bb000eee:	00000013          	nop
    bb000ef2:	00000013          	nop
    bb000ef6:	00000013          	nop
    bb000efa:	00000013          	nop
    bb000efe:	00000013          	nop
    bb000f02:	00000013          	nop
    bb000f06:	00000013          	nop
    bb000f0a:	00000013          	nop
    bb000f0e:	00000013          	nop
    bb000f12:	00000013          	nop
    bb000f16:	00000013          	nop
    bb000f1a:	00000013          	nop
    bb000f1e:	00000013          	nop
    bb000f22:	00000013          	nop
    bb000f26:	00000013          	nop
    bb000f2a:	00000013          	nop
    bb000f2e:	00000013          	nop
    bb000f32:	00000013          	nop
    bb000f36:	00000013          	nop
    bb000f3a:	00000013          	nop
    bb000f3e:	00000013          	nop
    bb000f42:	00000013          	nop
    bb000f46:	00000013          	nop
    bb000f4a:	00000013          	nop
    bb000f4e:	00000013          	nop
    bb000f52:	00000013          	nop
    bb000f56:	00000013          	nop
    bb000f5a:	00000013          	nop
    bb000f5e:	00000013          	nop
    bb000f62:	00000013          	nop
    bb000f66:	00000013          	nop
    bb000f6a:	00000013          	nop
    bb000f6e:	00000013          	nop
    bb000f72:	00000013          	nop
    bb000f76:	00000013          	nop
    bb000f7a:	00000013          	nop
    bb000f7e:	00000013          	nop
    bb000f82:	00000013          	nop
    bb000f86:	00000013          	nop
    bb000f8a:	00000013          	nop
    bb000f8e:	00000013          	nop
    bb000f92:	00000013          	nop
    bb000f96:	00000013          	nop
    bb000f9a:	00000013          	nop
    bb000f9e:	00000013          	nop
    bb000fa2:	00000013          	nop
    bb000fa6:	00000013          	nop
    bb000faa:	00000013          	nop
    bb000fae:	00000013          	nop
    bb000fb2:	00000013          	nop
    bb000fb6:	00000013          	nop
    bb000fba:	00000013          	nop
    bb000fbe:	00000013          	nop
    bb000fc2:	00000013          	nop
    bb000fc6:	00000013          	nop
    bb000fca:	00000013          	nop
    bb000fce:	00000013          	nop
    bb000fd2:	00000013          	nop
    bb000fd6:	00000013          	nop
    bb000fda:	00000013          	nop
    bb000fde:	00000013          	nop
    bb000fe2:	00000013          	nop
    bb000fe6:	00000013          	nop
    bb000fea:	00000013          	nop
    bb000fee:	00000013          	nop
    bb000ff2:	00000013          	nop
    bb000ff6:	00000013          	nop
    bb000ffa:	00000013          	nop
    bb000ffe:	0001                	nop

00000000bb001000 <supervisor>:
    bb001000:	00003417          	auipc	s0,0x3
    bb001004:	00040413          	mv	s0,s0
    bb001008:	00004497          	auipc	s1,0x4
    bb00100c:	ff848493          	addi	s1,s1,-8 # bb005000 <l2_table>
    bb001010:	0024d913          	srli	s2,s1,0x2
    bb001014:	00196913          	ori	s2,s2,1
    bb001018:	01243023          	sd	s2,0(s0) # bb004000 <l3_table>
    bb00101c:	00004417          	auipc	s0,0x4
    bb001020:	fe440413          	addi	s0,s0,-28 # bb005000 <l2_table>
    bb001024:	00005497          	auipc	s1,0x5
    bb001028:	fdc48493          	addi	s1,s1,-36 # bb006000 <l1_user>
    bb00102c:	0024d913          	srli	s2,s1,0x2
    bb001030:	00196913          	ori	s2,s2,1
    bb001034:	01243023          	sd	s2,0(s0)
    bb001038:	00006497          	auipc	s1,0x6
    bb00103c:	fc848493          	addi	s1,s1,-56 # bb007000 <l1_sup>
    bb001040:	0024d913          	srli	s2,s1,0x2
    bb001044:	00196913          	ori	s2,s2,1
    bb001048:	01243823          	sd	s2,16(s0)
    bb00104c:	00005417          	auipc	s0,0x5
    bb001050:	fb440413          	addi	s0,s0,-76 # bb006000 <l1_user>
    bb001054:	00007497          	auipc	s1,0x7
    bb001058:	fac48493          	addi	s1,s1,-84 # bb008000 <l0_user>
    bb00105c:	0024d913          	srli	s2,s1,0x2
    bb001060:	00196913          	ori	s2,s2,1
    bb001064:	01243023          	sd	s2,0(s0)
    bb001068:	00006417          	auipc	s0,0x6
    bb00106c:	f9840413          	addi	s0,s0,-104 # bb007000 <l1_sup>
    bb001070:	00008497          	auipc	s1,0x8
    bb001074:	f9048493          	addi	s1,s1,-112 # bb009000 <l0_sup>
    bb001078:	0024d913          	srli	s2,s1,0x2
    bb00107c:	00196913          	ori	s2,s2,1
    bb001080:	1d800293          	li	t0,472
    bb001084:	028e                	slli	t0,t0,0x3
    bb001086:	00540333          	add	t1,s0,t0
    bb00108a:	01233023          	sd	s2,0(t1)
    bb00108e:	00007417          	auipc	s0,0x7
    bb001092:	f7240413          	addi	s0,s0,-142 # bb008000 <l0_user>
    bb001096:	00001497          	auipc	s1,0x1
    bb00109a:	f6a48493          	addi	s1,s1,-150 # bb002000 <user_code>
    bb00109e:	0024d913          	srli	s2,s1,0x2
    bb0010a2:	0df96913          	ori	s2,s2,223
    bb0010a6:	01243023          	sd	s2,0(s0)
    bb0010aa:	00002497          	auipc	s1,0x2
    bb0010ae:	f5648493          	addi	s1,s1,-170 # bb003000 <user_data>
    bb0010b2:	0024d913          	srli	s2,s1,0x2
    bb0010b6:	0df96913          	ori	s2,s2,223
    bb0010ba:	01243423          	sd	s2,8(s0)
    bb0010be:	00008417          	auipc	s0,0x8
    bb0010c2:	f4240413          	addi	s0,s0,-190 # bb009000 <l0_sup>
    bb0010c6:	fffff497          	auipc	s1,0xfffff
    bb0010ca:	f3a48493          	addi	s1,s1,-198 # bb000000 <main>
    bb0010ce:	0024d913          	srli	s2,s1,0x2
    bb0010d2:	0cf96913          	ori	s2,s2,207
    bb0010d6:	42a1                	li	t0,8

00000000bb0010d8 <map_sup>:
    bb0010d8:	01243023          	sd	s2,0(s0)
    bb0010dc:	40090913          	addi	s2,s2,1024
    bb0010e0:	0421                	addi	s0,s0,8
    bb0010e2:	12fd                	addi	t0,t0,-1
    bb0010e4:	fe029ae3          	bnez	t0,bb0010d8 <map_sup>
    bb0010e8:	10000293          	li	t0,256
    bb0010ec:	1002b073          	csrc	sstatus,t0
    bb0010f0:	00003297          	auipc	t0,0x3
    bb0010f4:	f1028293          	addi	t0,t0,-240 # bb004000 <l3_table>
    bb0010f8:	00c2d293          	srli	t0,t0,0xc
    bb0010fc:	4325                	li	t1,9
    bb0010fe:	1372                	slli	t1,t1,0x3c
    bb001100:	005363b3          	or	t2,t1,t0
    bb001104:	00009317          	auipc	t1,0x9
    bb001108:	efc30313          	addi	t1,t1,-260 # bb00a000 <satp_config>
    bb00110c:	00733023          	sd	t2,0(t1)
    bb001110:	00009317          	auipc	t1,0x9
    bb001114:	ef030313          	addi	t1,t1,-272 # bb00a000 <satp_config>
    bb001118:	00033383          	ld	t2,0(t1)
    bb00111c:	12000073          	sfence.vma
    bb001120:	18039073          	csrw	satp,t2
    bb001124:	12000073          	sfence.vma
    bb001128:	4e81                	li	t4,0
    bb00112a:	141e9073          	csrw	sepc,t4
    bb00112e:	10200073          	sret
    bb001132:	00000013          	nop
    bb001136:	00000013          	nop
    bb00113a:	00000013          	nop
    bb00113e:	00000013          	nop
    bb001142:	00000013          	nop
    bb001146:	00000013          	nop
    bb00114a:	00000013          	nop
    bb00114e:	00000013          	nop
    bb001152:	00000013          	nop
    bb001156:	00000013          	nop
    bb00115a:	00000013          	nop
    bb00115e:	00000013          	nop
    bb001162:	00000013          	nop
    bb001166:	00000013          	nop
    bb00116a:	00000013          	nop
    bb00116e:	00000013          	nop
    bb001172:	00000013          	nop
    bb001176:	00000013          	nop
    bb00117a:	00000013          	nop
    bb00117e:	00000013          	nop
    bb001182:	00000013          	nop
    bb001186:	00000013          	nop
    bb00118a:	00000013          	nop
    bb00118e:	00000013          	nop
    bb001192:	00000013          	nop
    bb001196:	00000013          	nop
    bb00119a:	00000013          	nop
    bb00119e:	00000013          	nop
    bb0011a2:	00000013          	nop
    bb0011a6:	00000013          	nop
    bb0011aa:	00000013          	nop
    bb0011ae:	00000013          	nop
    bb0011b2:	00000013          	nop
    bb0011b6:	00000013          	nop
    bb0011ba:	00000013          	nop
    bb0011be:	00000013          	nop
    bb0011c2:	00000013          	nop
    bb0011c6:	00000013          	nop
    bb0011ca:	00000013          	nop
    bb0011ce:	00000013          	nop
    bb0011d2:	00000013          	nop
    bb0011d6:	00000013          	nop
    bb0011da:	00000013          	nop
    bb0011de:	00000013          	nop
    bb0011e2:	00000013          	nop
    bb0011e6:	00000013          	nop
    bb0011ea:	00000013          	nop
    bb0011ee:	00000013          	nop
    bb0011f2:	00000013          	nop
    bb0011f6:	00000013          	nop
    bb0011fa:	00000013          	nop
    bb0011fe:	00000013          	nop
    bb001202:	00000013          	nop
    bb001206:	00000013          	nop
    bb00120a:	00000013          	nop
    bb00120e:	00000013          	nop
    bb001212:	00000013          	nop
    bb001216:	00000013          	nop
    bb00121a:	00000013          	nop
    bb00121e:	00000013          	nop
    bb001222:	00000013          	nop
    bb001226:	00000013          	nop
    bb00122a:	00000013          	nop
    bb00122e:	00000013          	nop
    bb001232:	00000013          	nop
    bb001236:	00000013          	nop
    bb00123a:	00000013          	nop
    bb00123e:	00000013          	nop
    bb001242:	00000013          	nop
    bb001246:	00000013          	nop
    bb00124a:	00000013          	nop
    bb00124e:	00000013          	nop
    bb001252:	00000013          	nop
    bb001256:	00000013          	nop
    bb00125a:	00000013          	nop
    bb00125e:	00000013          	nop
    bb001262:	00000013          	nop
    bb001266:	00000013          	nop
    bb00126a:	00000013          	nop
    bb00126e:	00000013          	nop
    bb001272:	00000013          	nop
    bb001276:	00000013          	nop
    bb00127a:	00000013          	nop
    bb00127e:	00000013          	nop
    bb001282:	00000013          	nop
    bb001286:	00000013          	nop
    bb00128a:	00000013          	nop
    bb00128e:	00000013          	nop
    bb001292:	00000013          	nop
    bb001296:	00000013          	nop
    bb00129a:	00000013          	nop
    bb00129e:	00000013          	nop
    bb0012a2:	00000013          	nop
    bb0012a6:	00000013          	nop
    bb0012aa:	00000013          	nop
    bb0012ae:	00000013          	nop
    bb0012b2:	00000013          	nop
    bb0012b6:	00000013          	nop
    bb0012ba:	00000013          	nop
    bb0012be:	00000013          	nop
    bb0012c2:	00000013          	nop
    bb0012c6:	00000013          	nop
    bb0012ca:	00000013          	nop
    bb0012ce:	00000013          	nop
    bb0012d2:	00000013          	nop
    bb0012d6:	00000013          	nop
    bb0012da:	00000013          	nop
    bb0012de:	00000013          	nop
    bb0012e2:	00000013          	nop
    bb0012e6:	00000013          	nop
    bb0012ea:	00000013          	nop
    bb0012ee:	00000013          	nop
    bb0012f2:	00000013          	nop
    bb0012f6:	00000013          	nop
    bb0012fa:	00000013          	nop
    bb0012fe:	00000013          	nop
    bb001302:	00000013          	nop
    bb001306:	00000013          	nop
    bb00130a:	00000013          	nop
    bb00130e:	00000013          	nop
    bb001312:	00000013          	nop
    bb001316:	00000013          	nop
    bb00131a:	00000013          	nop
    bb00131e:	00000013          	nop
    bb001322:	00000013          	nop
    bb001326:	00000013          	nop
    bb00132a:	00000013          	nop
    bb00132e:	00000013          	nop
    bb001332:	00000013          	nop
    bb001336:	00000013          	nop
    bb00133a:	00000013          	nop
    bb00133e:	00000013          	nop
    bb001342:	00000013          	nop
    bb001346:	00000013          	nop
    bb00134a:	00000013          	nop
    bb00134e:	00000013          	nop
    bb001352:	00000013          	nop
    bb001356:	00000013          	nop
    bb00135a:	00000013          	nop
    bb00135e:	00000013          	nop
    bb001362:	00000013          	nop
    bb001366:	00000013          	nop
    bb00136a:	00000013          	nop
    bb00136e:	00000013          	nop
    bb001372:	00000013          	nop
    bb001376:	00000013          	nop
    bb00137a:	00000013          	nop
    bb00137e:	00000013          	nop
    bb001382:	00000013          	nop
    bb001386:	00000013          	nop
    bb00138a:	00000013          	nop
    bb00138e:	00000013          	nop
    bb001392:	00000013          	nop
    bb001396:	00000013          	nop
    bb00139a:	00000013          	nop
    bb00139e:	00000013          	nop
    bb0013a2:	00000013          	nop
    bb0013a6:	00000013          	nop
    bb0013aa:	00000013          	nop
    bb0013ae:	00000013          	nop
    bb0013b2:	00000013          	nop
    bb0013b6:	00000013          	nop
    bb0013ba:	00000013          	nop
    bb0013be:	00000013          	nop
    bb0013c2:	00000013          	nop
    bb0013c6:	00000013          	nop
    bb0013ca:	00000013          	nop
    bb0013ce:	00000013          	nop
    bb0013d2:	00000013          	nop
    bb0013d6:	00000013          	nop
    bb0013da:	00000013          	nop
    bb0013de:	00000013          	nop
    bb0013e2:	00000013          	nop
    bb0013e6:	00000013          	nop
    bb0013ea:	00000013          	nop
    bb0013ee:	00000013          	nop
    bb0013f2:	00000013          	nop
    bb0013f6:	00000013          	nop
    bb0013fa:	00000013          	nop
    bb0013fe:	00000013          	nop
    bb001402:	00000013          	nop
    bb001406:	00000013          	nop
    bb00140a:	00000013          	nop
    bb00140e:	00000013          	nop
    bb001412:	00000013          	nop
    bb001416:	00000013          	nop
    bb00141a:	00000013          	nop
    bb00141e:	00000013          	nop
    bb001422:	00000013          	nop
    bb001426:	00000013          	nop
    bb00142a:	00000013          	nop
    bb00142e:	00000013          	nop
    bb001432:	00000013          	nop
    bb001436:	00000013          	nop
    bb00143a:	00000013          	nop
    bb00143e:	00000013          	nop
    bb001442:	00000013          	nop
    bb001446:	00000013          	nop
    bb00144a:	00000013          	nop
    bb00144e:	00000013          	nop
    bb001452:	00000013          	nop
    bb001456:	00000013          	nop
    bb00145a:	00000013          	nop
    bb00145e:	00000013          	nop
    bb001462:	00000013          	nop
    bb001466:	00000013          	nop
    bb00146a:	00000013          	nop
    bb00146e:	00000013          	nop
    bb001472:	00000013          	nop
    bb001476:	00000013          	nop
    bb00147a:	00000013          	nop
    bb00147e:	00000013          	nop
    bb001482:	00000013          	nop
    bb001486:	00000013          	nop
    bb00148a:	00000013          	nop
    bb00148e:	00000013          	nop
    bb001492:	00000013          	nop
    bb001496:	00000013          	nop
    bb00149a:	00000013          	nop
    bb00149e:	00000013          	nop
    bb0014a2:	00000013          	nop
    bb0014a6:	00000013          	nop
    bb0014aa:	00000013          	nop
    bb0014ae:	00000013          	nop
    bb0014b2:	00000013          	nop
    bb0014b6:	00000013          	nop
    bb0014ba:	00000013          	nop
    bb0014be:	00000013          	nop
    bb0014c2:	00000013          	nop
    bb0014c6:	00000013          	nop
    bb0014ca:	00000013          	nop
    bb0014ce:	00000013          	nop
    bb0014d2:	00000013          	nop
    bb0014d6:	00000013          	nop
    bb0014da:	00000013          	nop
    bb0014de:	00000013          	nop
    bb0014e2:	00000013          	nop
    bb0014e6:	00000013          	nop
    bb0014ea:	00000013          	nop
    bb0014ee:	00000013          	nop
    bb0014f2:	00000013          	nop
    bb0014f6:	00000013          	nop
    bb0014fa:	00000013          	nop
    bb0014fe:	00000013          	nop
    bb001502:	00000013          	nop
    bb001506:	00000013          	nop
    bb00150a:	00000013          	nop
    bb00150e:	00000013          	nop
    bb001512:	00000013          	nop
    bb001516:	00000013          	nop
    bb00151a:	00000013          	nop
    bb00151e:	00000013          	nop
    bb001522:	00000013          	nop
    bb001526:	00000013          	nop
    bb00152a:	00000013          	nop
    bb00152e:	00000013          	nop
    bb001532:	00000013          	nop
    bb001536:	00000013          	nop
    bb00153a:	00000013          	nop
    bb00153e:	00000013          	nop
    bb001542:	00000013          	nop
    bb001546:	00000013          	nop
    bb00154a:	00000013          	nop
    bb00154e:	00000013          	nop
    bb001552:	00000013          	nop
    bb001556:	00000013          	nop
    bb00155a:	00000013          	nop
    bb00155e:	00000013          	nop
    bb001562:	00000013          	nop
    bb001566:	00000013          	nop
    bb00156a:	00000013          	nop
    bb00156e:	00000013          	nop
    bb001572:	00000013          	nop
    bb001576:	00000013          	nop
    bb00157a:	00000013          	nop
    bb00157e:	00000013          	nop
    bb001582:	00000013          	nop
    bb001586:	00000013          	nop
    bb00158a:	00000013          	nop
    bb00158e:	00000013          	nop
    bb001592:	00000013          	nop
    bb001596:	00000013          	nop
    bb00159a:	00000013          	nop
    bb00159e:	00000013          	nop
    bb0015a2:	00000013          	nop
    bb0015a6:	00000013          	nop
    bb0015aa:	00000013          	nop
    bb0015ae:	00000013          	nop
    bb0015b2:	00000013          	nop
    bb0015b6:	00000013          	nop
    bb0015ba:	00000013          	nop
    bb0015be:	00000013          	nop
    bb0015c2:	00000013          	nop
    bb0015c6:	00000013          	nop
    bb0015ca:	00000013          	nop
    bb0015ce:	00000013          	nop
    bb0015d2:	00000013          	nop
    bb0015d6:	00000013          	nop
    bb0015da:	00000013          	nop
    bb0015de:	00000013          	nop
    bb0015e2:	00000013          	nop
    bb0015e6:	00000013          	nop
    bb0015ea:	00000013          	nop
    bb0015ee:	00000013          	nop
    bb0015f2:	00000013          	nop
    bb0015f6:	00000013          	nop
    bb0015fa:	00000013          	nop
    bb0015fe:	00000013          	nop
    bb001602:	00000013          	nop
    bb001606:	00000013          	nop
    bb00160a:	00000013          	nop
    bb00160e:	00000013          	nop
    bb001612:	00000013          	nop
    bb001616:	00000013          	nop
    bb00161a:	00000013          	nop
    bb00161e:	00000013          	nop
    bb001622:	00000013          	nop
    bb001626:	00000013          	nop
    bb00162a:	00000013          	nop
    bb00162e:	00000013          	nop
    bb001632:	00000013          	nop
    bb001636:	00000013          	nop
    bb00163a:	00000013          	nop
    bb00163e:	00000013          	nop
    bb001642:	00000013          	nop
    bb001646:	00000013          	nop
    bb00164a:	00000013          	nop
    bb00164e:	00000013          	nop
    bb001652:	00000013          	nop
    bb001656:	00000013          	nop
    bb00165a:	00000013          	nop
    bb00165e:	00000013          	nop
    bb001662:	00000013          	nop
    bb001666:	00000013          	nop
    bb00166a:	00000013          	nop
    bb00166e:	00000013          	nop
    bb001672:	00000013          	nop
    bb001676:	00000013          	nop
    bb00167a:	00000013          	nop
    bb00167e:	00000013          	nop
    bb001682:	00000013          	nop
    bb001686:	00000013          	nop
    bb00168a:	00000013          	nop
    bb00168e:	00000013          	nop
    bb001692:	00000013          	nop
    bb001696:	00000013          	nop
    bb00169a:	00000013          	nop
    bb00169e:	00000013          	nop
    bb0016a2:	00000013          	nop
    bb0016a6:	00000013          	nop
    bb0016aa:	00000013          	nop
    bb0016ae:	00000013          	nop
    bb0016b2:	00000013          	nop
    bb0016b6:	00000013          	nop
    bb0016ba:	00000013          	nop
    bb0016be:	00000013          	nop
    bb0016c2:	00000013          	nop
    bb0016c6:	00000013          	nop
    bb0016ca:	00000013          	nop
    bb0016ce:	00000013          	nop
    bb0016d2:	00000013          	nop
    bb0016d6:	00000013          	nop
    bb0016da:	00000013          	nop
    bb0016de:	00000013          	nop
    bb0016e2:	00000013          	nop
    bb0016e6:	00000013          	nop
    bb0016ea:	00000013          	nop
    bb0016ee:	00000013          	nop
    bb0016f2:	00000013          	nop
    bb0016f6:	00000013          	nop
    bb0016fa:	00000013          	nop
    bb0016fe:	00000013          	nop
    bb001702:	00000013          	nop
    bb001706:	00000013          	nop
    bb00170a:	00000013          	nop
    bb00170e:	00000013          	nop
    bb001712:	00000013          	nop
    bb001716:	00000013          	nop
    bb00171a:	00000013          	nop
    bb00171e:	00000013          	nop
    bb001722:	00000013          	nop
    bb001726:	00000013          	nop
    bb00172a:	00000013          	nop
    bb00172e:	00000013          	nop
    bb001732:	00000013          	nop
    bb001736:	00000013          	nop
    bb00173a:	00000013          	nop
    bb00173e:	00000013          	nop
    bb001742:	00000013          	nop
    bb001746:	00000013          	nop
    bb00174a:	00000013          	nop
    bb00174e:	00000013          	nop
    bb001752:	00000013          	nop
    bb001756:	00000013          	nop
    bb00175a:	00000013          	nop
    bb00175e:	00000013          	nop
    bb001762:	00000013          	nop
    bb001766:	00000013          	nop
    bb00176a:	00000013          	nop
    bb00176e:	00000013          	nop
    bb001772:	00000013          	nop
    bb001776:	00000013          	nop
    bb00177a:	00000013          	nop
    bb00177e:	00000013          	nop
    bb001782:	00000013          	nop
    bb001786:	00000013          	nop
    bb00178a:	00000013          	nop
    bb00178e:	00000013          	nop
    bb001792:	00000013          	nop
    bb001796:	00000013          	nop
    bb00179a:	00000013          	nop
    bb00179e:	00000013          	nop
    bb0017a2:	00000013          	nop
    bb0017a6:	00000013          	nop
    bb0017aa:	00000013          	nop
    bb0017ae:	00000013          	nop
    bb0017b2:	00000013          	nop
    bb0017b6:	00000013          	nop
    bb0017ba:	00000013          	nop
    bb0017be:	00000013          	nop
    bb0017c2:	00000013          	nop
    bb0017c6:	00000013          	nop
    bb0017ca:	00000013          	nop
    bb0017ce:	00000013          	nop
    bb0017d2:	00000013          	nop
    bb0017d6:	00000013          	nop
    bb0017da:	00000013          	nop
    bb0017de:	00000013          	nop
    bb0017e2:	00000013          	nop
    bb0017e6:	00000013          	nop
    bb0017ea:	00000013          	nop
    bb0017ee:	00000013          	nop
    bb0017f2:	00000013          	nop
    bb0017f6:	00000013          	nop
    bb0017fa:	00000013          	nop
    bb0017fe:	00000013          	nop
    bb001802:	00000013          	nop
    bb001806:	00000013          	nop
    bb00180a:	00000013          	nop
    bb00180e:	00000013          	nop
    bb001812:	00000013          	nop
    bb001816:	00000013          	nop
    bb00181a:	00000013          	nop
    bb00181e:	00000013          	nop
    bb001822:	00000013          	nop
    bb001826:	00000013          	nop
    bb00182a:	00000013          	nop
    bb00182e:	00000013          	nop
    bb001832:	00000013          	nop
    bb001836:	00000013          	nop
    bb00183a:	00000013          	nop
    bb00183e:	00000013          	nop
    bb001842:	00000013          	nop
    bb001846:	00000013          	nop
    bb00184a:	00000013          	nop
    bb00184e:	00000013          	nop
    bb001852:	00000013          	nop
    bb001856:	00000013          	nop
    bb00185a:	00000013          	nop
    bb00185e:	00000013          	nop
    bb001862:	00000013          	nop
    bb001866:	00000013          	nop
    bb00186a:	00000013          	nop
    bb00186e:	00000013          	nop
    bb001872:	00000013          	nop
    bb001876:	00000013          	nop
    bb00187a:	00000013          	nop
    bb00187e:	00000013          	nop
    bb001882:	00000013          	nop
    bb001886:	00000013          	nop
    bb00188a:	00000013          	nop
    bb00188e:	00000013          	nop
    bb001892:	00000013          	nop
    bb001896:	00000013          	nop
    bb00189a:	00000013          	nop
    bb00189e:	00000013          	nop
    bb0018a2:	00000013          	nop
    bb0018a6:	00000013          	nop
    bb0018aa:	00000013          	nop
    bb0018ae:	00000013          	nop
    bb0018b2:	00000013          	nop
    bb0018b6:	00000013          	nop
    bb0018ba:	00000013          	nop
    bb0018be:	00000013          	nop
    bb0018c2:	00000013          	nop
    bb0018c6:	00000013          	nop
    bb0018ca:	00000013          	nop
    bb0018ce:	00000013          	nop
    bb0018d2:	00000013          	nop
    bb0018d6:	00000013          	nop
    bb0018da:	00000013          	nop
    bb0018de:	00000013          	nop
    bb0018e2:	00000013          	nop
    bb0018e6:	00000013          	nop
    bb0018ea:	00000013          	nop
    bb0018ee:	00000013          	nop
    bb0018f2:	00000013          	nop
    bb0018f6:	00000013          	nop
    bb0018fa:	00000013          	nop
    bb0018fe:	00000013          	nop
    bb001902:	00000013          	nop
    bb001906:	00000013          	nop
    bb00190a:	00000013          	nop
    bb00190e:	00000013          	nop
    bb001912:	00000013          	nop
    bb001916:	00000013          	nop
    bb00191a:	00000013          	nop
    bb00191e:	00000013          	nop
    bb001922:	00000013          	nop
    bb001926:	00000013          	nop
    bb00192a:	00000013          	nop
    bb00192e:	00000013          	nop
    bb001932:	00000013          	nop
    bb001936:	00000013          	nop
    bb00193a:	00000013          	nop
    bb00193e:	00000013          	nop
    bb001942:	00000013          	nop
    bb001946:	00000013          	nop
    bb00194a:	00000013          	nop
    bb00194e:	00000013          	nop
    bb001952:	00000013          	nop
    bb001956:	00000013          	nop
    bb00195a:	00000013          	nop
    bb00195e:	00000013          	nop
    bb001962:	00000013          	nop
    bb001966:	00000013          	nop
    bb00196a:	00000013          	nop
    bb00196e:	00000013          	nop
    bb001972:	00000013          	nop
    bb001976:	00000013          	nop
    bb00197a:	00000013          	nop
    bb00197e:	00000013          	nop
    bb001982:	00000013          	nop
    bb001986:	00000013          	nop
    bb00198a:	00000013          	nop
    bb00198e:	00000013          	nop
    bb001992:	00000013          	nop
    bb001996:	00000013          	nop
    bb00199a:	00000013          	nop
    bb00199e:	00000013          	nop
    bb0019a2:	00000013          	nop
    bb0019a6:	00000013          	nop
    bb0019aa:	00000013          	nop
    bb0019ae:	00000013          	nop
    bb0019b2:	00000013          	nop
    bb0019b6:	00000013          	nop
    bb0019ba:	00000013          	nop
    bb0019be:	00000013          	nop
    bb0019c2:	00000013          	nop
    bb0019c6:	00000013          	nop
    bb0019ca:	00000013          	nop
    bb0019ce:	00000013          	nop
    bb0019d2:	00000013          	nop
    bb0019d6:	00000013          	nop
    bb0019da:	00000013          	nop
    bb0019de:	00000013          	nop
    bb0019e2:	00000013          	nop
    bb0019e6:	00000013          	nop
    bb0019ea:	00000013          	nop
    bb0019ee:	00000013          	nop
    bb0019f2:	00000013          	nop
    bb0019f6:	00000013          	nop
    bb0019fa:	00000013          	nop
    bb0019fe:	00000013          	nop
    bb001a02:	00000013          	nop
    bb001a06:	00000013          	nop
    bb001a0a:	00000013          	nop
    bb001a0e:	00000013          	nop
    bb001a12:	00000013          	nop
    bb001a16:	00000013          	nop
    bb001a1a:	00000013          	nop
    bb001a1e:	00000013          	nop
    bb001a22:	00000013          	nop
    bb001a26:	00000013          	nop
    bb001a2a:	00000013          	nop
    bb001a2e:	00000013          	nop
    bb001a32:	00000013          	nop
    bb001a36:	00000013          	nop
    bb001a3a:	00000013          	nop
    bb001a3e:	00000013          	nop
    bb001a42:	00000013          	nop
    bb001a46:	00000013          	nop
    bb001a4a:	00000013          	nop
    bb001a4e:	00000013          	nop
    bb001a52:	00000013          	nop
    bb001a56:	00000013          	nop
    bb001a5a:	00000013          	nop
    bb001a5e:	00000013          	nop
    bb001a62:	00000013          	nop
    bb001a66:	00000013          	nop
    bb001a6a:	00000013          	nop
    bb001a6e:	00000013          	nop
    bb001a72:	00000013          	nop
    bb001a76:	00000013          	nop
    bb001a7a:	00000013          	nop
    bb001a7e:	00000013          	nop
    bb001a82:	00000013          	nop
    bb001a86:	00000013          	nop
    bb001a8a:	00000013          	nop
    bb001a8e:	00000013          	nop
    bb001a92:	00000013          	nop
    bb001a96:	00000013          	nop
    bb001a9a:	00000013          	nop
    bb001a9e:	00000013          	nop
    bb001aa2:	00000013          	nop
    bb001aa6:	00000013          	nop
    bb001aaa:	00000013          	nop
    bb001aae:	00000013          	nop
    bb001ab2:	00000013          	nop
    bb001ab6:	00000013          	nop
    bb001aba:	00000013          	nop
    bb001abe:	00000013          	nop
    bb001ac2:	00000013          	nop
    bb001ac6:	00000013          	nop
    bb001aca:	00000013          	nop
    bb001ace:	00000013          	nop
    bb001ad2:	00000013          	nop
    bb001ad6:	00000013          	nop
    bb001ada:	00000013          	nop
    bb001ade:	00000013          	nop
    bb001ae2:	00000013          	nop
    bb001ae6:	00000013          	nop
    bb001aea:	00000013          	nop
    bb001aee:	00000013          	nop
    bb001af2:	00000013          	nop
    bb001af6:	00000013          	nop
    bb001afa:	00000013          	nop
    bb001afe:	00000013          	nop
    bb001b02:	00000013          	nop
    bb001b06:	00000013          	nop
    bb001b0a:	00000013          	nop
    bb001b0e:	00000013          	nop
    bb001b12:	00000013          	nop
    bb001b16:	00000013          	nop
    bb001b1a:	00000013          	nop
    bb001b1e:	00000013          	nop
    bb001b22:	00000013          	nop
    bb001b26:	00000013          	nop
    bb001b2a:	00000013          	nop
    bb001b2e:	00000013          	nop
    bb001b32:	00000013          	nop
    bb001b36:	00000013          	nop
    bb001b3a:	00000013          	nop
    bb001b3e:	00000013          	nop
    bb001b42:	00000013          	nop
    bb001b46:	00000013          	nop
    bb001b4a:	00000013          	nop
    bb001b4e:	00000013          	nop
    bb001b52:	00000013          	nop
    bb001b56:	00000013          	nop
    bb001b5a:	00000013          	nop
    bb001b5e:	00000013          	nop
    bb001b62:	00000013          	nop
    bb001b66:	00000013          	nop
    bb001b6a:	00000013          	nop
    bb001b6e:	00000013          	nop
    bb001b72:	00000013          	nop
    bb001b76:	00000013          	nop
    bb001b7a:	00000013          	nop
    bb001b7e:	00000013          	nop
    bb001b82:	00000013          	nop
    bb001b86:	00000013          	nop
    bb001b8a:	00000013          	nop
    bb001b8e:	00000013          	nop
    bb001b92:	00000013          	nop
    bb001b96:	00000013          	nop
    bb001b9a:	00000013          	nop
    bb001b9e:	00000013          	nop
    bb001ba2:	00000013          	nop
    bb001ba6:	00000013          	nop
    bb001baa:	00000013          	nop
    bb001bae:	00000013          	nop
    bb001bb2:	00000013          	nop
    bb001bb6:	00000013          	nop
    bb001bba:	00000013          	nop
    bb001bbe:	00000013          	nop
    bb001bc2:	00000013          	nop
    bb001bc6:	00000013          	nop
    bb001bca:	00000013          	nop
    bb001bce:	00000013          	nop
    bb001bd2:	00000013          	nop
    bb001bd6:	00000013          	nop
    bb001bda:	00000013          	nop
    bb001bde:	00000013          	nop
    bb001be2:	00000013          	nop
    bb001be6:	00000013          	nop
    bb001bea:	00000013          	nop
    bb001bee:	00000013          	nop
    bb001bf2:	00000013          	nop
    bb001bf6:	00000013          	nop
    bb001bfa:	00000013          	nop
    bb001bfe:	00000013          	nop
    bb001c02:	00000013          	nop
    bb001c06:	00000013          	nop
    bb001c0a:	00000013          	nop
    bb001c0e:	00000013          	nop
    bb001c12:	00000013          	nop
    bb001c16:	00000013          	nop
    bb001c1a:	00000013          	nop
    bb001c1e:	00000013          	nop
    bb001c22:	00000013          	nop
    bb001c26:	00000013          	nop
    bb001c2a:	00000013          	nop
    bb001c2e:	00000013          	nop
    bb001c32:	00000013          	nop
    bb001c36:	00000013          	nop
    bb001c3a:	00000013          	nop
    bb001c3e:	00000013          	nop
    bb001c42:	00000013          	nop
    bb001c46:	00000013          	nop
    bb001c4a:	00000013          	nop
    bb001c4e:	00000013          	nop
    bb001c52:	00000013          	nop
    bb001c56:	00000013          	nop
    bb001c5a:	00000013          	nop
    bb001c5e:	00000013          	nop
    bb001c62:	00000013          	nop
    bb001c66:	00000013          	nop
    bb001c6a:	00000013          	nop
    bb001c6e:	00000013          	nop
    bb001c72:	00000013          	nop
    bb001c76:	00000013          	nop
    bb001c7a:	00000013          	nop
    bb001c7e:	00000013          	nop
    bb001c82:	00000013          	nop
    bb001c86:	00000013          	nop
    bb001c8a:	00000013          	nop
    bb001c8e:	00000013          	nop
    bb001c92:	00000013          	nop
    bb001c96:	00000013          	nop
    bb001c9a:	00000013          	nop
    bb001c9e:	00000013          	nop
    bb001ca2:	00000013          	nop
    bb001ca6:	00000013          	nop
    bb001caa:	00000013          	nop
    bb001cae:	00000013          	nop
    bb001cb2:	00000013          	nop
    bb001cb6:	00000013          	nop
    bb001cba:	00000013          	nop
    bb001cbe:	00000013          	nop
    bb001cc2:	00000013          	nop
    bb001cc6:	00000013          	nop
    bb001cca:	00000013          	nop
    bb001cce:	00000013          	nop
    bb001cd2:	00000013          	nop
    bb001cd6:	00000013          	nop
    bb001cda:	00000013          	nop
    bb001cde:	00000013          	nop
    bb001ce2:	00000013          	nop
    bb001ce6:	00000013          	nop
    bb001cea:	00000013          	nop
    bb001cee:	00000013          	nop
    bb001cf2:	00000013          	nop
    bb001cf6:	00000013          	nop
    bb001cfa:	00000013          	nop
    bb001cfe:	00000013          	nop
    bb001d02:	00000013          	nop
    bb001d06:	00000013          	nop
    bb001d0a:	00000013          	nop
    bb001d0e:	00000013          	nop
    bb001d12:	00000013          	nop
    bb001d16:	00000013          	nop
    bb001d1a:	00000013          	nop
    bb001d1e:	00000013          	nop
    bb001d22:	00000013          	nop
    bb001d26:	00000013          	nop
    bb001d2a:	00000013          	nop
    bb001d2e:	00000013          	nop
    bb001d32:	00000013          	nop
    bb001d36:	00000013          	nop
    bb001d3a:	00000013          	nop
    bb001d3e:	00000013          	nop
    bb001d42:	00000013          	nop
    bb001d46:	00000013          	nop
    bb001d4a:	00000013          	nop
    bb001d4e:	00000013          	nop
    bb001d52:	00000013          	nop
    bb001d56:	00000013          	nop
    bb001d5a:	00000013          	nop
    bb001d5e:	00000013          	nop
    bb001d62:	00000013          	nop
    bb001d66:	00000013          	nop
    bb001d6a:	00000013          	nop
    bb001d6e:	00000013          	nop
    bb001d72:	00000013          	nop
    bb001d76:	00000013          	nop
    bb001d7a:	00000013          	nop
    bb001d7e:	00000013          	nop
    bb001d82:	00000013          	nop
    bb001d86:	00000013          	nop
    bb001d8a:	00000013          	nop
    bb001d8e:	00000013          	nop
    bb001d92:	00000013          	nop
    bb001d96:	00000013          	nop
    bb001d9a:	00000013          	nop
    bb001d9e:	00000013          	nop
    bb001da2:	00000013          	nop
    bb001da6:	00000013          	nop
    bb001daa:	00000013          	nop
    bb001dae:	00000013          	nop
    bb001db2:	00000013          	nop
    bb001db6:	00000013          	nop
    bb001dba:	00000013          	nop
    bb001dbe:	00000013          	nop
    bb001dc2:	00000013          	nop
    bb001dc6:	00000013          	nop
    bb001dca:	00000013          	nop
    bb001dce:	00000013          	nop
    bb001dd2:	00000013          	nop
    bb001dd6:	00000013          	nop
    bb001dda:	00000013          	nop
    bb001dde:	00000013          	nop
    bb001de2:	00000013          	nop
    bb001de6:	00000013          	nop
    bb001dea:	00000013          	nop
    bb001dee:	00000013          	nop
    bb001df2:	00000013          	nop
    bb001df6:	00000013          	nop
    bb001dfa:	00000013          	nop
    bb001dfe:	00000013          	nop
    bb001e02:	00000013          	nop
    bb001e06:	00000013          	nop
    bb001e0a:	00000013          	nop
    bb001e0e:	00000013          	nop
    bb001e12:	00000013          	nop
    bb001e16:	00000013          	nop
    bb001e1a:	00000013          	nop
    bb001e1e:	00000013          	nop
    bb001e22:	00000013          	nop
    bb001e26:	00000013          	nop
    bb001e2a:	00000013          	nop
    bb001e2e:	00000013          	nop
    bb001e32:	00000013          	nop
    bb001e36:	00000013          	nop
    bb001e3a:	00000013          	nop
    bb001e3e:	00000013          	nop
    bb001e42:	00000013          	nop
    bb001e46:	00000013          	nop
    bb001e4a:	00000013          	nop
    bb001e4e:	00000013          	nop
    bb001e52:	00000013          	nop
    bb001e56:	00000013          	nop
    bb001e5a:	00000013          	nop
    bb001e5e:	00000013          	nop
    bb001e62:	00000013          	nop
    bb001e66:	00000013          	nop
    bb001e6a:	00000013          	nop
    bb001e6e:	00000013          	nop
    bb001e72:	00000013          	nop
    bb001e76:	00000013          	nop
    bb001e7a:	00000013          	nop
    bb001e7e:	00000013          	nop
    bb001e82:	00000013          	nop
    bb001e86:	00000013          	nop
    bb001e8a:	00000013          	nop
    bb001e8e:	00000013          	nop
    bb001e92:	00000013          	nop
    bb001e96:	00000013          	nop
    bb001e9a:	00000013          	nop
    bb001e9e:	00000013          	nop
    bb001ea2:	00000013          	nop
    bb001ea6:	00000013          	nop
    bb001eaa:	00000013          	nop
    bb001eae:	00000013          	nop
    bb001eb2:	00000013          	nop
    bb001eb6:	00000013          	nop
    bb001eba:	00000013          	nop
    bb001ebe:	00000013          	nop
    bb001ec2:	00000013          	nop
    bb001ec6:	00000013          	nop
    bb001eca:	00000013          	nop
    bb001ece:	00000013          	nop
    bb001ed2:	00000013          	nop
    bb001ed6:	00000013          	nop
    bb001eda:	00000013          	nop
    bb001ede:	00000013          	nop
    bb001ee2:	00000013          	nop
    bb001ee6:	00000013          	nop
    bb001eea:	00000013          	nop
    bb001eee:	00000013          	nop
    bb001ef2:	00000013          	nop
    bb001ef6:	00000013          	nop
    bb001efa:	00000013          	nop
    bb001efe:	00000013          	nop
    bb001f02:	00000013          	nop
    bb001f06:	00000013          	nop
    bb001f0a:	00000013          	nop
    bb001f0e:	00000013          	nop
    bb001f12:	00000013          	nop
    bb001f16:	00000013          	nop
    bb001f1a:	00000013          	nop
    bb001f1e:	00000013          	nop
    bb001f22:	00000013          	nop
    bb001f26:	00000013          	nop
    bb001f2a:	00000013          	nop
    bb001f2e:	00000013          	nop
    bb001f32:	00000013          	nop
    bb001f36:	00000013          	nop
    bb001f3a:	00000013          	nop
    bb001f3e:	00000013          	nop
    bb001f42:	00000013          	nop
    bb001f46:	00000013          	nop
    bb001f4a:	00000013          	nop
    bb001f4e:	00000013          	nop
    bb001f52:	00000013          	nop
    bb001f56:	00000013          	nop
    bb001f5a:	00000013          	nop
    bb001f5e:	00000013          	nop
    bb001f62:	00000013          	nop
    bb001f66:	00000013          	nop
    bb001f6a:	00000013          	nop
    bb001f6e:	00000013          	nop
    bb001f72:	00000013          	nop
    bb001f76:	00000013          	nop
    bb001f7a:	00000013          	nop
    bb001f7e:	00000013          	nop
    bb001f82:	00000013          	nop
    bb001f86:	00000013          	nop
    bb001f8a:	00000013          	nop
    bb001f8e:	00000013          	nop
    bb001f92:	00000013          	nop
    bb001f96:	00000013          	nop
    bb001f9a:	00000013          	nop
    bb001f9e:	00000013          	nop
    bb001fa2:	00000013          	nop
    bb001fa6:	00000013          	nop
    bb001faa:	00000013          	nop
    bb001fae:	00000013          	nop
    bb001fb2:	00000013          	nop
    bb001fb6:	00000013          	nop
    bb001fba:	00000013          	nop
    bb001fbe:	00000013          	nop
    bb001fc2:	00000013          	nop
    bb001fc6:	00000013          	nop
    bb001fca:	00000013          	nop
    bb001fce:	00000013          	nop
    bb001fd2:	00000013          	nop
    bb001fd6:	00000013          	nop
    bb001fda:	00000013          	nop
    bb001fde:	00000013          	nop
    bb001fe2:	00000013          	nop
    bb001fe6:	00000013          	nop
    bb001fea:	00000013          	nop
    bb001fee:	00000013          	nop
    bb001ff2:	00000013          	nop
    bb001ff6:	00000013          	nop
    bb001ffa:	00000013          	nop
    bb001ffe:	0001                	nop

00000000bb002000 <user_code>:
    bb002000:	6285                	lui	t0,0x1
    bb002002:	0002b303          	ld	t1,0(t0) # 1000 <main-0xbafff000>
    bb002006:	0082b383          	ld	t2,8(t0)
    bb00200a:	0102be03          	ld	t3,16(t0)
    bb00200e:	0182be83          	ld	t4,24(t0)

00000000bb002012 <loop>:
    bb002012:	a001                	j	bb002012 <loop>
    bb002014:	00000013          	nop
    bb002018:	00000013          	nop
    bb00201c:	00000013          	nop
    bb002020:	00000013          	nop
    bb002024:	00000013          	nop
    bb002028:	00000013          	nop
    bb00202c:	00000013          	nop
    bb002030:	00000013          	nop
    bb002034:	00000013          	nop
    bb002038:	00000013          	nop
    bb00203c:	00000013          	nop
    bb002040:	00000013          	nop
    bb002044:	00000013          	nop
    bb002048:	00000013          	nop
    bb00204c:	00000013          	nop
    bb002050:	00000013          	nop
    bb002054:	00000013          	nop
    bb002058:	00000013          	nop
    bb00205c:	00000013          	nop
    bb002060:	00000013          	nop
    bb002064:	00000013          	nop
    bb002068:	00000013          	nop
    bb00206c:	00000013          	nop
    bb002070:	00000013          	nop
    bb002074:	00000013          	nop
    bb002078:	00000013          	nop
    bb00207c:	00000013          	nop
    bb002080:	00000013          	nop
    bb002084:	00000013          	nop
    bb002088:	00000013          	nop
    bb00208c:	00000013          	nop
    bb002090:	00000013          	nop
    bb002094:	00000013          	nop
    bb002098:	00000013          	nop
    bb00209c:	00000013          	nop
    bb0020a0:	00000013          	nop
    bb0020a4:	00000013          	nop
    bb0020a8:	00000013          	nop
    bb0020ac:	00000013          	nop
    bb0020b0:	00000013          	nop
    bb0020b4:	00000013          	nop
    bb0020b8:	00000013          	nop
    bb0020bc:	00000013          	nop
    bb0020c0:	00000013          	nop
    bb0020c4:	00000013          	nop
    bb0020c8:	00000013          	nop
    bb0020cc:	00000013          	nop
    bb0020d0:	00000013          	nop
    bb0020d4:	00000013          	nop
    bb0020d8:	00000013          	nop
    bb0020dc:	00000013          	nop
    bb0020e0:	00000013          	nop
    bb0020e4:	00000013          	nop
    bb0020e8:	00000013          	nop
    bb0020ec:	00000013          	nop
    bb0020f0:	00000013          	nop
    bb0020f4:	00000013          	nop
    bb0020f8:	00000013          	nop
    bb0020fc:	00000013          	nop
    bb002100:	00000013          	nop
    bb002104:	00000013          	nop
    bb002108:	00000013          	nop
    bb00210c:	00000013          	nop
    bb002110:	00000013          	nop
    bb002114:	00000013          	nop
    bb002118:	00000013          	nop
    bb00211c:	00000013          	nop
    bb002120:	00000013          	nop
    bb002124:	00000013          	nop
    bb002128:	00000013          	nop
    bb00212c:	00000013          	nop
    bb002130:	00000013          	nop
    bb002134:	00000013          	nop
    bb002138:	00000013          	nop
    bb00213c:	00000013          	nop
    bb002140:	00000013          	nop
    bb002144:	00000013          	nop
    bb002148:	00000013          	nop
    bb00214c:	00000013          	nop
    bb002150:	00000013          	nop
    bb002154:	00000013          	nop
    bb002158:	00000013          	nop
    bb00215c:	00000013          	nop
    bb002160:	00000013          	nop
    bb002164:	00000013          	nop
    bb002168:	00000013          	nop
    bb00216c:	00000013          	nop
    bb002170:	00000013          	nop
    bb002174:	00000013          	nop
    bb002178:	00000013          	nop
    bb00217c:	00000013          	nop
    bb002180:	00000013          	nop
    bb002184:	00000013          	nop
    bb002188:	00000013          	nop
    bb00218c:	00000013          	nop
    bb002190:	00000013          	nop
    bb002194:	00000013          	nop
    bb002198:	00000013          	nop
    bb00219c:	00000013          	nop
    bb0021a0:	00000013          	nop
    bb0021a4:	00000013          	nop
    bb0021a8:	00000013          	nop
    bb0021ac:	00000013          	nop
    bb0021b0:	00000013          	nop
    bb0021b4:	00000013          	nop
    bb0021b8:	00000013          	nop
    bb0021bc:	00000013          	nop
    bb0021c0:	00000013          	nop
    bb0021c4:	00000013          	nop
    bb0021c8:	00000013          	nop
    bb0021cc:	00000013          	nop
    bb0021d0:	00000013          	nop
    bb0021d4:	00000013          	nop
    bb0021d8:	00000013          	nop
    bb0021dc:	00000013          	nop
    bb0021e0:	00000013          	nop
    bb0021e4:	00000013          	nop
    bb0021e8:	00000013          	nop
    bb0021ec:	00000013          	nop
    bb0021f0:	00000013          	nop
    bb0021f4:	00000013          	nop
    bb0021f8:	00000013          	nop
    bb0021fc:	00000013          	nop
    bb002200:	00000013          	nop
    bb002204:	00000013          	nop
    bb002208:	00000013          	nop
    bb00220c:	00000013          	nop
    bb002210:	00000013          	nop
    bb002214:	00000013          	nop
    bb002218:	00000013          	nop
    bb00221c:	00000013          	nop
    bb002220:	00000013          	nop
    bb002224:	00000013          	nop
    bb002228:	00000013          	nop
    bb00222c:	00000013          	nop
    bb002230:	00000013          	nop
    bb002234:	00000013          	nop
    bb002238:	00000013          	nop
    bb00223c:	00000013          	nop
    bb002240:	00000013          	nop
    bb002244:	00000013          	nop
    bb002248:	00000013          	nop
    bb00224c:	00000013          	nop
    bb002250:	00000013          	nop
    bb002254:	00000013          	nop
    bb002258:	00000013          	nop
    bb00225c:	00000013          	nop
    bb002260:	00000013          	nop
    bb002264:	00000013          	nop
    bb002268:	00000013          	nop
    bb00226c:	00000013          	nop
    bb002270:	00000013          	nop
    bb002274:	00000013          	nop
    bb002278:	00000013          	nop
    bb00227c:	00000013          	nop
    bb002280:	00000013          	nop
    bb002284:	00000013          	nop
    bb002288:	00000013          	nop
    bb00228c:	00000013          	nop
    bb002290:	00000013          	nop
    bb002294:	00000013          	nop
    bb002298:	00000013          	nop
    bb00229c:	00000013          	nop
    bb0022a0:	00000013          	nop
    bb0022a4:	00000013          	nop
    bb0022a8:	00000013          	nop
    bb0022ac:	00000013          	nop
    bb0022b0:	00000013          	nop
    bb0022b4:	00000013          	nop
    bb0022b8:	00000013          	nop
    bb0022bc:	00000013          	nop
    bb0022c0:	00000013          	nop
    bb0022c4:	00000013          	nop
    bb0022c8:	00000013          	nop
    bb0022cc:	00000013          	nop
    bb0022d0:	00000013          	nop
    bb0022d4:	00000013          	nop
    bb0022d8:	00000013          	nop
    bb0022dc:	00000013          	nop
    bb0022e0:	00000013          	nop
    bb0022e4:	00000013          	nop
    bb0022e8:	00000013          	nop
    bb0022ec:	00000013          	nop
    bb0022f0:	00000013          	nop
    bb0022f4:	00000013          	nop
    bb0022f8:	00000013          	nop
    bb0022fc:	00000013          	nop
    bb002300:	00000013          	nop
    bb002304:	00000013          	nop
    bb002308:	00000013          	nop
    bb00230c:	00000013          	nop
    bb002310:	00000013          	nop
    bb002314:	00000013          	nop
    bb002318:	00000013          	nop
    bb00231c:	00000013          	nop
    bb002320:	00000013          	nop
    bb002324:	00000013          	nop
    bb002328:	00000013          	nop
    bb00232c:	00000013          	nop
    bb002330:	00000013          	nop
    bb002334:	00000013          	nop
    bb002338:	00000013          	nop
    bb00233c:	00000013          	nop
    bb002340:	00000013          	nop
    bb002344:	00000013          	nop
    bb002348:	00000013          	nop
    bb00234c:	00000013          	nop
    bb002350:	00000013          	nop
    bb002354:	00000013          	nop
    bb002358:	00000013          	nop
    bb00235c:	00000013          	nop
    bb002360:	00000013          	nop
    bb002364:	00000013          	nop
    bb002368:	00000013          	nop
    bb00236c:	00000013          	nop
    bb002370:	00000013          	nop
    bb002374:	00000013          	nop
    bb002378:	00000013          	nop
    bb00237c:	00000013          	nop
    bb002380:	00000013          	nop
    bb002384:	00000013          	nop
    bb002388:	00000013          	nop
    bb00238c:	00000013          	nop
    bb002390:	00000013          	nop
    bb002394:	00000013          	nop
    bb002398:	00000013          	nop
    bb00239c:	00000013          	nop
    bb0023a0:	00000013          	nop
    bb0023a4:	00000013          	nop
    bb0023a8:	00000013          	nop
    bb0023ac:	00000013          	nop
    bb0023b0:	00000013          	nop
    bb0023b4:	00000013          	nop
    bb0023b8:	00000013          	nop
    bb0023bc:	00000013          	nop
    bb0023c0:	00000013          	nop
    bb0023c4:	00000013          	nop
    bb0023c8:	00000013          	nop
    bb0023cc:	00000013          	nop
    bb0023d0:	00000013          	nop
    bb0023d4:	00000013          	nop
    bb0023d8:	00000013          	nop
    bb0023dc:	00000013          	nop
    bb0023e0:	00000013          	nop
    bb0023e4:	00000013          	nop
    bb0023e8:	00000013          	nop
    bb0023ec:	00000013          	nop
    bb0023f0:	00000013          	nop
    bb0023f4:	00000013          	nop
    bb0023f8:	00000013          	nop
    bb0023fc:	00000013          	nop
    bb002400:	00000013          	nop
    bb002404:	00000013          	nop
    bb002408:	00000013          	nop
    bb00240c:	00000013          	nop
    bb002410:	00000013          	nop
    bb002414:	00000013          	nop
    bb002418:	00000013          	nop
    bb00241c:	00000013          	nop
    bb002420:	00000013          	nop
    bb002424:	00000013          	nop
    bb002428:	00000013          	nop
    bb00242c:	00000013          	nop
    bb002430:	00000013          	nop
    bb002434:	00000013          	nop
    bb002438:	00000013          	nop
    bb00243c:	00000013          	nop
    bb002440:	00000013          	nop
    bb002444:	00000013          	nop
    bb002448:	00000013          	nop
    bb00244c:	00000013          	nop
    bb002450:	00000013          	nop
    bb002454:	00000013          	nop
    bb002458:	00000013          	nop
    bb00245c:	00000013          	nop
    bb002460:	00000013          	nop
    bb002464:	00000013          	nop
    bb002468:	00000013          	nop
    bb00246c:	00000013          	nop
    bb002470:	00000013          	nop
    bb002474:	00000013          	nop
    bb002478:	00000013          	nop
    bb00247c:	00000013          	nop
    bb002480:	00000013          	nop
    bb002484:	00000013          	nop
    bb002488:	00000013          	nop
    bb00248c:	00000013          	nop
    bb002490:	00000013          	nop
    bb002494:	00000013          	nop
    bb002498:	00000013          	nop
    bb00249c:	00000013          	nop
    bb0024a0:	00000013          	nop
    bb0024a4:	00000013          	nop
    bb0024a8:	00000013          	nop
    bb0024ac:	00000013          	nop
    bb0024b0:	00000013          	nop
    bb0024b4:	00000013          	nop
    bb0024b8:	00000013          	nop
    bb0024bc:	00000013          	nop
    bb0024c0:	00000013          	nop
    bb0024c4:	00000013          	nop
    bb0024c8:	00000013          	nop
    bb0024cc:	00000013          	nop
    bb0024d0:	00000013          	nop
    bb0024d4:	00000013          	nop
    bb0024d8:	00000013          	nop
    bb0024dc:	00000013          	nop
    bb0024e0:	00000013          	nop
    bb0024e4:	00000013          	nop
    bb0024e8:	00000013          	nop
    bb0024ec:	00000013          	nop
    bb0024f0:	00000013          	nop
    bb0024f4:	00000013          	nop
    bb0024f8:	00000013          	nop
    bb0024fc:	00000013          	nop
    bb002500:	00000013          	nop
    bb002504:	00000013          	nop
    bb002508:	00000013          	nop
    bb00250c:	00000013          	nop
    bb002510:	00000013          	nop
    bb002514:	00000013          	nop
    bb002518:	00000013          	nop
    bb00251c:	00000013          	nop
    bb002520:	00000013          	nop
    bb002524:	00000013          	nop
    bb002528:	00000013          	nop
    bb00252c:	00000013          	nop
    bb002530:	00000013          	nop
    bb002534:	00000013          	nop
    bb002538:	00000013          	nop
    bb00253c:	00000013          	nop
    bb002540:	00000013          	nop
    bb002544:	00000013          	nop
    bb002548:	00000013          	nop
    bb00254c:	00000013          	nop
    bb002550:	00000013          	nop
    bb002554:	00000013          	nop
    bb002558:	00000013          	nop
    bb00255c:	00000013          	nop
    bb002560:	00000013          	nop
    bb002564:	00000013          	nop
    bb002568:	00000013          	nop
    bb00256c:	00000013          	nop
    bb002570:	00000013          	nop
    bb002574:	00000013          	nop
    bb002578:	00000013          	nop
    bb00257c:	00000013          	nop
    bb002580:	00000013          	nop
    bb002584:	00000013          	nop
    bb002588:	00000013          	nop
    bb00258c:	00000013          	nop
    bb002590:	00000013          	nop
    bb002594:	00000013          	nop
    bb002598:	00000013          	nop
    bb00259c:	00000013          	nop
    bb0025a0:	00000013          	nop
    bb0025a4:	00000013          	nop
    bb0025a8:	00000013          	nop
    bb0025ac:	00000013          	nop
    bb0025b0:	00000013          	nop
    bb0025b4:	00000013          	nop
    bb0025b8:	00000013          	nop
    bb0025bc:	00000013          	nop
    bb0025c0:	00000013          	nop
    bb0025c4:	00000013          	nop
    bb0025c8:	00000013          	nop
    bb0025cc:	00000013          	nop
    bb0025d0:	00000013          	nop
    bb0025d4:	00000013          	nop
    bb0025d8:	00000013          	nop
    bb0025dc:	00000013          	nop
    bb0025e0:	00000013          	nop
    bb0025e4:	00000013          	nop
    bb0025e8:	00000013          	nop
    bb0025ec:	00000013          	nop
    bb0025f0:	00000013          	nop
    bb0025f4:	00000013          	nop
    bb0025f8:	00000013          	nop
    bb0025fc:	00000013          	nop
    bb002600:	00000013          	nop
    bb002604:	00000013          	nop
    bb002608:	00000013          	nop
    bb00260c:	00000013          	nop
    bb002610:	00000013          	nop
    bb002614:	00000013          	nop
    bb002618:	00000013          	nop
    bb00261c:	00000013          	nop
    bb002620:	00000013          	nop
    bb002624:	00000013          	nop
    bb002628:	00000013          	nop
    bb00262c:	00000013          	nop
    bb002630:	00000013          	nop
    bb002634:	00000013          	nop
    bb002638:	00000013          	nop
    bb00263c:	00000013          	nop
    bb002640:	00000013          	nop
    bb002644:	00000013          	nop
    bb002648:	00000013          	nop
    bb00264c:	00000013          	nop
    bb002650:	00000013          	nop
    bb002654:	00000013          	nop
    bb002658:	00000013          	nop
    bb00265c:	00000013          	nop
    bb002660:	00000013          	nop
    bb002664:	00000013          	nop
    bb002668:	00000013          	nop
    bb00266c:	00000013          	nop
    bb002670:	00000013          	nop
    bb002674:	00000013          	nop
    bb002678:	00000013          	nop
    bb00267c:	00000013          	nop
    bb002680:	00000013          	nop
    bb002684:	00000013          	nop
    bb002688:	00000013          	nop
    bb00268c:	00000013          	nop
    bb002690:	00000013          	nop
    bb002694:	00000013          	nop
    bb002698:	00000013          	nop
    bb00269c:	00000013          	nop
    bb0026a0:	00000013          	nop
    bb0026a4:	00000013          	nop
    bb0026a8:	00000013          	nop
    bb0026ac:	00000013          	nop
    bb0026b0:	00000013          	nop
    bb0026b4:	00000013          	nop
    bb0026b8:	00000013          	nop
    bb0026bc:	00000013          	nop
    bb0026c0:	00000013          	nop
    bb0026c4:	00000013          	nop
    bb0026c8:	00000013          	nop
    bb0026cc:	00000013          	nop
    bb0026d0:	00000013          	nop
    bb0026d4:	00000013          	nop
    bb0026d8:	00000013          	nop
    bb0026dc:	00000013          	nop
    bb0026e0:	00000013          	nop
    bb0026e4:	00000013          	nop
    bb0026e8:	00000013          	nop
    bb0026ec:	00000013          	nop
    bb0026f0:	00000013          	nop
    bb0026f4:	00000013          	nop
    bb0026f8:	00000013          	nop
    bb0026fc:	00000013          	nop
    bb002700:	00000013          	nop
    bb002704:	00000013          	nop
    bb002708:	00000013          	nop
    bb00270c:	00000013          	nop
    bb002710:	00000013          	nop
    bb002714:	00000013          	nop
    bb002718:	00000013          	nop
    bb00271c:	00000013          	nop
    bb002720:	00000013          	nop
    bb002724:	00000013          	nop
    bb002728:	00000013          	nop
    bb00272c:	00000013          	nop
    bb002730:	00000013          	nop
    bb002734:	00000013          	nop
    bb002738:	00000013          	nop
    bb00273c:	00000013          	nop
    bb002740:	00000013          	nop
    bb002744:	00000013          	nop
    bb002748:	00000013          	nop
    bb00274c:	00000013          	nop
    bb002750:	00000013          	nop
    bb002754:	00000013          	nop
    bb002758:	00000013          	nop
    bb00275c:	00000013          	nop
    bb002760:	00000013          	nop
    bb002764:	00000013          	nop
    bb002768:	00000013          	nop
    bb00276c:	00000013          	nop
    bb002770:	00000013          	nop
    bb002774:	00000013          	nop
    bb002778:	00000013          	nop
    bb00277c:	00000013          	nop
    bb002780:	00000013          	nop
    bb002784:	00000013          	nop
    bb002788:	00000013          	nop
    bb00278c:	00000013          	nop
    bb002790:	00000013          	nop
    bb002794:	00000013          	nop
    bb002798:	00000013          	nop
    bb00279c:	00000013          	nop
    bb0027a0:	00000013          	nop
    bb0027a4:	00000013          	nop
    bb0027a8:	00000013          	nop
    bb0027ac:	00000013          	nop
    bb0027b0:	00000013          	nop
    bb0027b4:	00000013          	nop
    bb0027b8:	00000013          	nop
    bb0027bc:	00000013          	nop
    bb0027c0:	00000013          	nop
    bb0027c4:	00000013          	nop
    bb0027c8:	00000013          	nop
    bb0027cc:	00000013          	nop
    bb0027d0:	00000013          	nop
    bb0027d4:	00000013          	nop
    bb0027d8:	00000013          	nop
    bb0027dc:	00000013          	nop
    bb0027e0:	00000013          	nop
    bb0027e4:	00000013          	nop
    bb0027e8:	00000013          	nop
    bb0027ec:	00000013          	nop
    bb0027f0:	00000013          	nop
    bb0027f4:	00000013          	nop
    bb0027f8:	00000013          	nop
    bb0027fc:	00000013          	nop
    bb002800:	00000013          	nop
    bb002804:	00000013          	nop
    bb002808:	00000013          	nop
    bb00280c:	00000013          	nop
    bb002810:	00000013          	nop
    bb002814:	00000013          	nop
    bb002818:	00000013          	nop
    bb00281c:	00000013          	nop
    bb002820:	00000013          	nop
    bb002824:	00000013          	nop
    bb002828:	00000013          	nop
    bb00282c:	00000013          	nop
    bb002830:	00000013          	nop
    bb002834:	00000013          	nop
    bb002838:	00000013          	nop
    bb00283c:	00000013          	nop
    bb002840:	00000013          	nop
    bb002844:	00000013          	nop
    bb002848:	00000013          	nop
    bb00284c:	00000013          	nop
    bb002850:	00000013          	nop
    bb002854:	00000013          	nop
    bb002858:	00000013          	nop
    bb00285c:	00000013          	nop
    bb002860:	00000013          	nop
    bb002864:	00000013          	nop
    bb002868:	00000013          	nop
    bb00286c:	00000013          	nop
    bb002870:	00000013          	nop
    bb002874:	00000013          	nop
    bb002878:	00000013          	nop
    bb00287c:	00000013          	nop
    bb002880:	00000013          	nop
    bb002884:	00000013          	nop
    bb002888:	00000013          	nop
    bb00288c:	00000013          	nop
    bb002890:	00000013          	nop
    bb002894:	00000013          	nop
    bb002898:	00000013          	nop
    bb00289c:	00000013          	nop
    bb0028a0:	00000013          	nop
    bb0028a4:	00000013          	nop
    bb0028a8:	00000013          	nop
    bb0028ac:	00000013          	nop
    bb0028b0:	00000013          	nop
    bb0028b4:	00000013          	nop
    bb0028b8:	00000013          	nop
    bb0028bc:	00000013          	nop
    bb0028c0:	00000013          	nop
    bb0028c4:	00000013          	nop
    bb0028c8:	00000013          	nop
    bb0028cc:	00000013          	nop
    bb0028d0:	00000013          	nop
    bb0028d4:	00000013          	nop
    bb0028d8:	00000013          	nop
    bb0028dc:	00000013          	nop
    bb0028e0:	00000013          	nop
    bb0028e4:	00000013          	nop
    bb0028e8:	00000013          	nop
    bb0028ec:	00000013          	nop
    bb0028f0:	00000013          	nop
    bb0028f4:	00000013          	nop
    bb0028f8:	00000013          	nop
    bb0028fc:	00000013          	nop
    bb002900:	00000013          	nop
    bb002904:	00000013          	nop
    bb002908:	00000013          	nop
    bb00290c:	00000013          	nop
    bb002910:	00000013          	nop
    bb002914:	00000013          	nop
    bb002918:	00000013          	nop
    bb00291c:	00000013          	nop
    bb002920:	00000013          	nop
    bb002924:	00000013          	nop
    bb002928:	00000013          	nop
    bb00292c:	00000013          	nop
    bb002930:	00000013          	nop
    bb002934:	00000013          	nop
    bb002938:	00000013          	nop
    bb00293c:	00000013          	nop
    bb002940:	00000013          	nop
    bb002944:	00000013          	nop
    bb002948:	00000013          	nop
    bb00294c:	00000013          	nop
    bb002950:	00000013          	nop
    bb002954:	00000013          	nop
    bb002958:	00000013          	nop
    bb00295c:	00000013          	nop
    bb002960:	00000013          	nop
    bb002964:	00000013          	nop
    bb002968:	00000013          	nop
    bb00296c:	00000013          	nop
    bb002970:	00000013          	nop
    bb002974:	00000013          	nop
    bb002978:	00000013          	nop
    bb00297c:	00000013          	nop
    bb002980:	00000013          	nop
    bb002984:	00000013          	nop
    bb002988:	00000013          	nop
    bb00298c:	00000013          	nop
    bb002990:	00000013          	nop
    bb002994:	00000013          	nop
    bb002998:	00000013          	nop
    bb00299c:	00000013          	nop
    bb0029a0:	00000013          	nop
    bb0029a4:	00000013          	nop
    bb0029a8:	00000013          	nop
    bb0029ac:	00000013          	nop
    bb0029b0:	00000013          	nop
    bb0029b4:	00000013          	nop
    bb0029b8:	00000013          	nop
    bb0029bc:	00000013          	nop
    bb0029c0:	00000013          	nop
    bb0029c4:	00000013          	nop
    bb0029c8:	00000013          	nop
    bb0029cc:	00000013          	nop
    bb0029d0:	00000013          	nop
    bb0029d4:	00000013          	nop
    bb0029d8:	00000013          	nop
    bb0029dc:	00000013          	nop
    bb0029e0:	00000013          	nop
    bb0029e4:	00000013          	nop
    bb0029e8:	00000013          	nop
    bb0029ec:	00000013          	nop
    bb0029f0:	00000013          	nop
    bb0029f4:	00000013          	nop
    bb0029f8:	00000013          	nop
    bb0029fc:	00000013          	nop
    bb002a00:	00000013          	nop
    bb002a04:	00000013          	nop
    bb002a08:	00000013          	nop
    bb002a0c:	00000013          	nop
    bb002a10:	00000013          	nop
    bb002a14:	00000013          	nop
    bb002a18:	00000013          	nop
    bb002a1c:	00000013          	nop
    bb002a20:	00000013          	nop
    bb002a24:	00000013          	nop
    bb002a28:	00000013          	nop
    bb002a2c:	00000013          	nop
    bb002a30:	00000013          	nop
    bb002a34:	00000013          	nop
    bb002a38:	00000013          	nop
    bb002a3c:	00000013          	nop
    bb002a40:	00000013          	nop
    bb002a44:	00000013          	nop
    bb002a48:	00000013          	nop
    bb002a4c:	00000013          	nop
    bb002a50:	00000013          	nop
    bb002a54:	00000013          	nop
    bb002a58:	00000013          	nop
    bb002a5c:	00000013          	nop
    bb002a60:	00000013          	nop
    bb002a64:	00000013          	nop
    bb002a68:	00000013          	nop
    bb002a6c:	00000013          	nop
    bb002a70:	00000013          	nop
    bb002a74:	00000013          	nop
    bb002a78:	00000013          	nop
    bb002a7c:	00000013          	nop
    bb002a80:	00000013          	nop
    bb002a84:	00000013          	nop
    bb002a88:	00000013          	nop
    bb002a8c:	00000013          	nop
    bb002a90:	00000013          	nop
    bb002a94:	00000013          	nop
    bb002a98:	00000013          	nop
    bb002a9c:	00000013          	nop
    bb002aa0:	00000013          	nop
    bb002aa4:	00000013          	nop
    bb002aa8:	00000013          	nop
    bb002aac:	00000013          	nop
    bb002ab0:	00000013          	nop
    bb002ab4:	00000013          	nop
    bb002ab8:	00000013          	nop
    bb002abc:	00000013          	nop
    bb002ac0:	00000013          	nop
    bb002ac4:	00000013          	nop
    bb002ac8:	00000013          	nop
    bb002acc:	00000013          	nop
    bb002ad0:	00000013          	nop
    bb002ad4:	00000013          	nop
    bb002ad8:	00000013          	nop
    bb002adc:	00000013          	nop
    bb002ae0:	00000013          	nop
    bb002ae4:	00000013          	nop
    bb002ae8:	00000013          	nop
    bb002aec:	00000013          	nop
    bb002af0:	00000013          	nop
    bb002af4:	00000013          	nop
    bb002af8:	00000013          	nop
    bb002afc:	00000013          	nop
    bb002b00:	00000013          	nop
    bb002b04:	00000013          	nop
    bb002b08:	00000013          	nop
    bb002b0c:	00000013          	nop
    bb002b10:	00000013          	nop
    bb002b14:	00000013          	nop
    bb002b18:	00000013          	nop
    bb002b1c:	00000013          	nop
    bb002b20:	00000013          	nop
    bb002b24:	00000013          	nop
    bb002b28:	00000013          	nop
    bb002b2c:	00000013          	nop
    bb002b30:	00000013          	nop
    bb002b34:	00000013          	nop
    bb002b38:	00000013          	nop
    bb002b3c:	00000013          	nop
    bb002b40:	00000013          	nop
    bb002b44:	00000013          	nop
    bb002b48:	00000013          	nop
    bb002b4c:	00000013          	nop
    bb002b50:	00000013          	nop
    bb002b54:	00000013          	nop
    bb002b58:	00000013          	nop
    bb002b5c:	00000013          	nop
    bb002b60:	00000013          	nop
    bb002b64:	00000013          	nop
    bb002b68:	00000013          	nop
    bb002b6c:	00000013          	nop
    bb002b70:	00000013          	nop
    bb002b74:	00000013          	nop
    bb002b78:	00000013          	nop
    bb002b7c:	00000013          	nop
    bb002b80:	00000013          	nop
    bb002b84:	00000013          	nop
    bb002b88:	00000013          	nop
    bb002b8c:	00000013          	nop
    bb002b90:	00000013          	nop
    bb002b94:	00000013          	nop
    bb002b98:	00000013          	nop
    bb002b9c:	00000013          	nop
    bb002ba0:	00000013          	nop
    bb002ba4:	00000013          	nop
    bb002ba8:	00000013          	nop
    bb002bac:	00000013          	nop
    bb002bb0:	00000013          	nop
    bb002bb4:	00000013          	nop
    bb002bb8:	00000013          	nop
    bb002bbc:	00000013          	nop
    bb002bc0:	00000013          	nop
    bb002bc4:	00000013          	nop
    bb002bc8:	00000013          	nop
    bb002bcc:	00000013          	nop
    bb002bd0:	00000013          	nop
    bb002bd4:	00000013          	nop
    bb002bd8:	00000013          	nop
    bb002bdc:	00000013          	nop
    bb002be0:	00000013          	nop
    bb002be4:	00000013          	nop
    bb002be8:	00000013          	nop
    bb002bec:	00000013          	nop
    bb002bf0:	00000013          	nop
    bb002bf4:	00000013          	nop
    bb002bf8:	00000013          	nop
    bb002bfc:	00000013          	nop
    bb002c00:	00000013          	nop
    bb002c04:	00000013          	nop
    bb002c08:	00000013          	nop
    bb002c0c:	00000013          	nop
    bb002c10:	00000013          	nop
    bb002c14:	00000013          	nop
    bb002c18:	00000013          	nop
    bb002c1c:	00000013          	nop
    bb002c20:	00000013          	nop
    bb002c24:	00000013          	nop
    bb002c28:	00000013          	nop
    bb002c2c:	00000013          	nop
    bb002c30:	00000013          	nop
    bb002c34:	00000013          	nop
    bb002c38:	00000013          	nop
    bb002c3c:	00000013          	nop
    bb002c40:	00000013          	nop
    bb002c44:	00000013          	nop
    bb002c48:	00000013          	nop
    bb002c4c:	00000013          	nop
    bb002c50:	00000013          	nop
    bb002c54:	00000013          	nop
    bb002c58:	00000013          	nop
    bb002c5c:	00000013          	nop
    bb002c60:	00000013          	nop
    bb002c64:	00000013          	nop
    bb002c68:	00000013          	nop
    bb002c6c:	00000013          	nop
    bb002c70:	00000013          	nop
    bb002c74:	00000013          	nop
    bb002c78:	00000013          	nop
    bb002c7c:	00000013          	nop
    bb002c80:	00000013          	nop
    bb002c84:	00000013          	nop
    bb002c88:	00000013          	nop
    bb002c8c:	00000013          	nop
    bb002c90:	00000013          	nop
    bb002c94:	00000013          	nop
    bb002c98:	00000013          	nop
    bb002c9c:	00000013          	nop
    bb002ca0:	00000013          	nop
    bb002ca4:	00000013          	nop
    bb002ca8:	00000013          	nop
    bb002cac:	00000013          	nop
    bb002cb0:	00000013          	nop
    bb002cb4:	00000013          	nop
    bb002cb8:	00000013          	nop
    bb002cbc:	00000013          	nop
    bb002cc0:	00000013          	nop
    bb002cc4:	00000013          	nop
    bb002cc8:	00000013          	nop
    bb002ccc:	00000013          	nop
    bb002cd0:	00000013          	nop
    bb002cd4:	00000013          	nop
    bb002cd8:	00000013          	nop
    bb002cdc:	00000013          	nop
    bb002ce0:	00000013          	nop
    bb002ce4:	00000013          	nop
    bb002ce8:	00000013          	nop
    bb002cec:	00000013          	nop
    bb002cf0:	00000013          	nop
    bb002cf4:	00000013          	nop
    bb002cf8:	00000013          	nop
    bb002cfc:	00000013          	nop
    bb002d00:	00000013          	nop
    bb002d04:	00000013          	nop
    bb002d08:	00000013          	nop
    bb002d0c:	00000013          	nop
    bb002d10:	00000013          	nop
    bb002d14:	00000013          	nop
    bb002d18:	00000013          	nop
    bb002d1c:	00000013          	nop
    bb002d20:	00000013          	nop
    bb002d24:	00000013          	nop
    bb002d28:	00000013          	nop
    bb002d2c:	00000013          	nop
    bb002d30:	00000013          	nop
    bb002d34:	00000013          	nop
    bb002d38:	00000013          	nop
    bb002d3c:	00000013          	nop
    bb002d40:	00000013          	nop
    bb002d44:	00000013          	nop
    bb002d48:	00000013          	nop
    bb002d4c:	00000013          	nop
    bb002d50:	00000013          	nop
    bb002d54:	00000013          	nop
    bb002d58:	00000013          	nop
    bb002d5c:	00000013          	nop
    bb002d60:	00000013          	nop
    bb002d64:	00000013          	nop
    bb002d68:	00000013          	nop
    bb002d6c:	00000013          	nop
    bb002d70:	00000013          	nop
    bb002d74:	00000013          	nop
    bb002d78:	00000013          	nop
    bb002d7c:	00000013          	nop
    bb002d80:	00000013          	nop
    bb002d84:	00000013          	nop
    bb002d88:	00000013          	nop
    bb002d8c:	00000013          	nop
    bb002d90:	00000013          	nop
    bb002d94:	00000013          	nop
    bb002d98:	00000013          	nop
    bb002d9c:	00000013          	nop
    bb002da0:	00000013          	nop
    bb002da4:	00000013          	nop
    bb002da8:	00000013          	nop
    bb002dac:	00000013          	nop
    bb002db0:	00000013          	nop
    bb002db4:	00000013          	nop
    bb002db8:	00000013          	nop
    bb002dbc:	00000013          	nop
    bb002dc0:	00000013          	nop
    bb002dc4:	00000013          	nop
    bb002dc8:	00000013          	nop
    bb002dcc:	00000013          	nop
    bb002dd0:	00000013          	nop
    bb002dd4:	00000013          	nop
    bb002dd8:	00000013          	nop
    bb002ddc:	00000013          	nop
    bb002de0:	00000013          	nop
    bb002de4:	00000013          	nop
    bb002de8:	00000013          	nop
    bb002dec:	00000013          	nop
    bb002df0:	00000013          	nop
    bb002df4:	00000013          	nop
    bb002df8:	00000013          	nop
    bb002dfc:	00000013          	nop
    bb002e00:	00000013          	nop
    bb002e04:	00000013          	nop
    bb002e08:	00000013          	nop
    bb002e0c:	00000013          	nop
    bb002e10:	00000013          	nop
    bb002e14:	00000013          	nop
    bb002e18:	00000013          	nop
    bb002e1c:	00000013          	nop
    bb002e20:	00000013          	nop
    bb002e24:	00000013          	nop
    bb002e28:	00000013          	nop
    bb002e2c:	00000013          	nop
    bb002e30:	00000013          	nop
    bb002e34:	00000013          	nop
    bb002e38:	00000013          	nop
    bb002e3c:	00000013          	nop
    bb002e40:	00000013          	nop
    bb002e44:	00000013          	nop
    bb002e48:	00000013          	nop
    bb002e4c:	00000013          	nop
    bb002e50:	00000013          	nop
    bb002e54:	00000013          	nop
    bb002e58:	00000013          	nop
    bb002e5c:	00000013          	nop
    bb002e60:	00000013          	nop
    bb002e64:	00000013          	nop
    bb002e68:	00000013          	nop
    bb002e6c:	00000013          	nop
    bb002e70:	00000013          	nop
    bb002e74:	00000013          	nop
    bb002e78:	00000013          	nop
    bb002e7c:	00000013          	nop
    bb002e80:	00000013          	nop
    bb002e84:	00000013          	nop
    bb002e88:	00000013          	nop
    bb002e8c:	00000013          	nop
    bb002e90:	00000013          	nop
    bb002e94:	00000013          	nop
    bb002e98:	00000013          	nop
    bb002e9c:	00000013          	nop
    bb002ea0:	00000013          	nop
    bb002ea4:	00000013          	nop
    bb002ea8:	00000013          	nop
    bb002eac:	00000013          	nop
    bb002eb0:	00000013          	nop
    bb002eb4:	00000013          	nop
    bb002eb8:	00000013          	nop
    bb002ebc:	00000013          	nop
    bb002ec0:	00000013          	nop
    bb002ec4:	00000013          	nop
    bb002ec8:	00000013          	nop
    bb002ecc:	00000013          	nop
    bb002ed0:	00000013          	nop
    bb002ed4:	00000013          	nop
    bb002ed8:	00000013          	nop
    bb002edc:	00000013          	nop
    bb002ee0:	00000013          	nop
    bb002ee4:	00000013          	nop
    bb002ee8:	00000013          	nop
    bb002eec:	00000013          	nop
    bb002ef0:	00000013          	nop
    bb002ef4:	00000013          	nop
    bb002ef8:	00000013          	nop
    bb002efc:	00000013          	nop
    bb002f00:	00000013          	nop
    bb002f04:	00000013          	nop
    bb002f08:	00000013          	nop
    bb002f0c:	00000013          	nop
    bb002f10:	00000013          	nop
    bb002f14:	00000013          	nop
    bb002f18:	00000013          	nop
    bb002f1c:	00000013          	nop
    bb002f20:	00000013          	nop
    bb002f24:	00000013          	nop
    bb002f28:	00000013          	nop
    bb002f2c:	00000013          	nop
    bb002f30:	00000013          	nop
    bb002f34:	00000013          	nop
    bb002f38:	00000013          	nop
    bb002f3c:	00000013          	nop
    bb002f40:	00000013          	nop
    bb002f44:	00000013          	nop
    bb002f48:	00000013          	nop
    bb002f4c:	00000013          	nop
    bb002f50:	00000013          	nop
    bb002f54:	00000013          	nop
    bb002f58:	00000013          	nop
    bb002f5c:	00000013          	nop
    bb002f60:	00000013          	nop
    bb002f64:	00000013          	nop
    bb002f68:	00000013          	nop
    bb002f6c:	00000013          	nop
    bb002f70:	00000013          	nop
    bb002f74:	00000013          	nop
    bb002f78:	00000013          	nop
    bb002f7c:	00000013          	nop
    bb002f80:	00000013          	nop
    bb002f84:	00000013          	nop
    bb002f88:	00000013          	nop
    bb002f8c:	00000013          	nop
    bb002f90:	00000013          	nop
    bb002f94:	00000013          	nop
    bb002f98:	00000013          	nop
    bb002f9c:	00000013          	nop
    bb002fa0:	00000013          	nop
    bb002fa4:	00000013          	nop
    bb002fa8:	00000013          	nop
    bb002fac:	00000013          	nop
    bb002fb0:	00000013          	nop
    bb002fb4:	00000013          	nop
    bb002fb8:	00000013          	nop
    bb002fbc:	00000013          	nop
    bb002fc0:	00000013          	nop
    bb002fc4:	00000013          	nop
    bb002fc8:	00000013          	nop
    bb002fcc:	00000013          	nop
    bb002fd0:	00000013          	nop
    bb002fd4:	00000013          	nop
    bb002fd8:	00000013          	nop
    bb002fdc:	00000013          	nop
    bb002fe0:	00000013          	nop
    bb002fe4:	00000013          	nop
    bb002fe8:	00000013          	nop
    bb002fec:	00000013          	nop
    bb002ff0:	00000013          	nop
    bb002ff4:	00000013          	nop
    bb002ff8:	00000013          	nop
    bb002ffc:	00000013          	nop

00000000bb003000 <user_data>:
    bb003000:	0001                	nop
    bb003002:	0000                	unimp
    bb003004:	0000                	unimp
	...

00000000bb003008 <var2>:
    bb003008:	0002                	c.slli64	zero
    bb00300a:	0000                	unimp
    bb00300c:	0000                	unimp
	...

00000000bb003010 <var3>:
    bb003010:	00000003          	lb	zero,0(zero) # 0 <main-0xbb000000>
    bb003014:	0000                	unimp
	...

00000000bb003018 <var4>:
    bb003018:	0004                	0x4
    bb00301a:	0000                	unimp
    bb00301c:	0000                	unimp
    bb00301e:	0000                	unimp
    bb003020:	00000013          	nop
    bb003024:	00000013          	nop
    bb003028:	00000013          	nop
    bb00302c:	00000013          	nop
    bb003030:	00000013          	nop
    bb003034:	00000013          	nop
    bb003038:	00000013          	nop
    bb00303c:	00000013          	nop
    bb003040:	00000013          	nop
    bb003044:	00000013          	nop
    bb003048:	00000013          	nop
    bb00304c:	00000013          	nop
    bb003050:	00000013          	nop
    bb003054:	00000013          	nop
    bb003058:	00000013          	nop
    bb00305c:	00000013          	nop
    bb003060:	00000013          	nop
    bb003064:	00000013          	nop
    bb003068:	00000013          	nop
    bb00306c:	00000013          	nop
    bb003070:	00000013          	nop
    bb003074:	00000013          	nop
    bb003078:	00000013          	nop
    bb00307c:	00000013          	nop
    bb003080:	00000013          	nop
    bb003084:	00000013          	nop
    bb003088:	00000013          	nop
    bb00308c:	00000013          	nop
    bb003090:	00000013          	nop
    bb003094:	00000013          	nop
    bb003098:	00000013          	nop
    bb00309c:	00000013          	nop
    bb0030a0:	00000013          	nop
    bb0030a4:	00000013          	nop
    bb0030a8:	00000013          	nop
    bb0030ac:	00000013          	nop
    bb0030b0:	00000013          	nop
    bb0030b4:	00000013          	nop
    bb0030b8:	00000013          	nop
    bb0030bc:	00000013          	nop
    bb0030c0:	00000013          	nop
    bb0030c4:	00000013          	nop
    bb0030c8:	00000013          	nop
    bb0030cc:	00000013          	nop
    bb0030d0:	00000013          	nop
    bb0030d4:	00000013          	nop
    bb0030d8:	00000013          	nop
    bb0030dc:	00000013          	nop
    bb0030e0:	00000013          	nop
    bb0030e4:	00000013          	nop
    bb0030e8:	00000013          	nop
    bb0030ec:	00000013          	nop
    bb0030f0:	00000013          	nop
    bb0030f4:	00000013          	nop
    bb0030f8:	00000013          	nop
    bb0030fc:	00000013          	nop
    bb003100:	00000013          	nop
    bb003104:	00000013          	nop
    bb003108:	00000013          	nop
    bb00310c:	00000013          	nop
    bb003110:	00000013          	nop
    bb003114:	00000013          	nop
    bb003118:	00000013          	nop
    bb00311c:	00000013          	nop
    bb003120:	00000013          	nop
    bb003124:	00000013          	nop
    bb003128:	00000013          	nop
    bb00312c:	00000013          	nop
    bb003130:	00000013          	nop
    bb003134:	00000013          	nop
    bb003138:	00000013          	nop
    bb00313c:	00000013          	nop
    bb003140:	00000013          	nop
    bb003144:	00000013          	nop
    bb003148:	00000013          	nop
    bb00314c:	00000013          	nop
    bb003150:	00000013          	nop
    bb003154:	00000013          	nop
    bb003158:	00000013          	nop
    bb00315c:	00000013          	nop
    bb003160:	00000013          	nop
    bb003164:	00000013          	nop
    bb003168:	00000013          	nop
    bb00316c:	00000013          	nop
    bb003170:	00000013          	nop
    bb003174:	00000013          	nop
    bb003178:	00000013          	nop
    bb00317c:	00000013          	nop
    bb003180:	00000013          	nop
    bb003184:	00000013          	nop
    bb003188:	00000013          	nop
    bb00318c:	00000013          	nop
    bb003190:	00000013          	nop
    bb003194:	00000013          	nop
    bb003198:	00000013          	nop
    bb00319c:	00000013          	nop
    bb0031a0:	00000013          	nop
    bb0031a4:	00000013          	nop
    bb0031a8:	00000013          	nop
    bb0031ac:	00000013          	nop
    bb0031b0:	00000013          	nop
    bb0031b4:	00000013          	nop
    bb0031b8:	00000013          	nop
    bb0031bc:	00000013          	nop
    bb0031c0:	00000013          	nop
    bb0031c4:	00000013          	nop
    bb0031c8:	00000013          	nop
    bb0031cc:	00000013          	nop
    bb0031d0:	00000013          	nop
    bb0031d4:	00000013          	nop
    bb0031d8:	00000013          	nop
    bb0031dc:	00000013          	nop
    bb0031e0:	00000013          	nop
    bb0031e4:	00000013          	nop
    bb0031e8:	00000013          	nop
    bb0031ec:	00000013          	nop
    bb0031f0:	00000013          	nop
    bb0031f4:	00000013          	nop
    bb0031f8:	00000013          	nop
    bb0031fc:	00000013          	nop
    bb003200:	00000013          	nop
    bb003204:	00000013          	nop
    bb003208:	00000013          	nop
    bb00320c:	00000013          	nop
    bb003210:	00000013          	nop
    bb003214:	00000013          	nop
    bb003218:	00000013          	nop
    bb00321c:	00000013          	nop
    bb003220:	00000013          	nop
    bb003224:	00000013          	nop
    bb003228:	00000013          	nop
    bb00322c:	00000013          	nop
    bb003230:	00000013          	nop
    bb003234:	00000013          	nop
    bb003238:	00000013          	nop
    bb00323c:	00000013          	nop
    bb003240:	00000013          	nop
    bb003244:	00000013          	nop
    bb003248:	00000013          	nop
    bb00324c:	00000013          	nop
    bb003250:	00000013          	nop
    bb003254:	00000013          	nop
    bb003258:	00000013          	nop
    bb00325c:	00000013          	nop
    bb003260:	00000013          	nop
    bb003264:	00000013          	nop
    bb003268:	00000013          	nop
    bb00326c:	00000013          	nop
    bb003270:	00000013          	nop
    bb003274:	00000013          	nop
    bb003278:	00000013          	nop
    bb00327c:	00000013          	nop
    bb003280:	00000013          	nop
    bb003284:	00000013          	nop
    bb003288:	00000013          	nop
    bb00328c:	00000013          	nop
    bb003290:	00000013          	nop
    bb003294:	00000013          	nop
    bb003298:	00000013          	nop
    bb00329c:	00000013          	nop
    bb0032a0:	00000013          	nop
    bb0032a4:	00000013          	nop
    bb0032a8:	00000013          	nop
    bb0032ac:	00000013          	nop
    bb0032b0:	00000013          	nop
    bb0032b4:	00000013          	nop
    bb0032b8:	00000013          	nop
    bb0032bc:	00000013          	nop
    bb0032c0:	00000013          	nop
    bb0032c4:	00000013          	nop
    bb0032c8:	00000013          	nop
    bb0032cc:	00000013          	nop
    bb0032d0:	00000013          	nop
    bb0032d4:	00000013          	nop
    bb0032d8:	00000013          	nop
    bb0032dc:	00000013          	nop
    bb0032e0:	00000013          	nop
    bb0032e4:	00000013          	nop
    bb0032e8:	00000013          	nop
    bb0032ec:	00000013          	nop
    bb0032f0:	00000013          	nop
    bb0032f4:	00000013          	nop
    bb0032f8:	00000013          	nop
    bb0032fc:	00000013          	nop
    bb003300:	00000013          	nop
    bb003304:	00000013          	nop
    bb003308:	00000013          	nop
    bb00330c:	00000013          	nop
    bb003310:	00000013          	nop
    bb003314:	00000013          	nop
    bb003318:	00000013          	nop
    bb00331c:	00000013          	nop
    bb003320:	00000013          	nop
    bb003324:	00000013          	nop
    bb003328:	00000013          	nop
    bb00332c:	00000013          	nop
    bb003330:	00000013          	nop
    bb003334:	00000013          	nop
    bb003338:	00000013          	nop
    bb00333c:	00000013          	nop
    bb003340:	00000013          	nop
    bb003344:	00000013          	nop
    bb003348:	00000013          	nop
    bb00334c:	00000013          	nop
    bb003350:	00000013          	nop
    bb003354:	00000013          	nop
    bb003358:	00000013          	nop
    bb00335c:	00000013          	nop
    bb003360:	00000013          	nop
    bb003364:	00000013          	nop
    bb003368:	00000013          	nop
    bb00336c:	00000013          	nop
    bb003370:	00000013          	nop
    bb003374:	00000013          	nop
    bb003378:	00000013          	nop
    bb00337c:	00000013          	nop
    bb003380:	00000013          	nop
    bb003384:	00000013          	nop
    bb003388:	00000013          	nop
    bb00338c:	00000013          	nop
    bb003390:	00000013          	nop
    bb003394:	00000013          	nop
    bb003398:	00000013          	nop
    bb00339c:	00000013          	nop
    bb0033a0:	00000013          	nop
    bb0033a4:	00000013          	nop
    bb0033a8:	00000013          	nop
    bb0033ac:	00000013          	nop
    bb0033b0:	00000013          	nop
    bb0033b4:	00000013          	nop
    bb0033b8:	00000013          	nop
    bb0033bc:	00000013          	nop
    bb0033c0:	00000013          	nop
    bb0033c4:	00000013          	nop
    bb0033c8:	00000013          	nop
    bb0033cc:	00000013          	nop
    bb0033d0:	00000013          	nop
    bb0033d4:	00000013          	nop
    bb0033d8:	00000013          	nop
    bb0033dc:	00000013          	nop
    bb0033e0:	00000013          	nop
    bb0033e4:	00000013          	nop
    bb0033e8:	00000013          	nop
    bb0033ec:	00000013          	nop
    bb0033f0:	00000013          	nop
    bb0033f4:	00000013          	nop
    bb0033f8:	00000013          	nop
    bb0033fc:	00000013          	nop
    bb003400:	00000013          	nop
    bb003404:	00000013          	nop
    bb003408:	00000013          	nop
    bb00340c:	00000013          	nop
    bb003410:	00000013          	nop
    bb003414:	00000013          	nop
    bb003418:	00000013          	nop
    bb00341c:	00000013          	nop
    bb003420:	00000013          	nop
    bb003424:	00000013          	nop
    bb003428:	00000013          	nop
    bb00342c:	00000013          	nop
    bb003430:	00000013          	nop
    bb003434:	00000013          	nop
    bb003438:	00000013          	nop
    bb00343c:	00000013          	nop
    bb003440:	00000013          	nop
    bb003444:	00000013          	nop
    bb003448:	00000013          	nop
    bb00344c:	00000013          	nop
    bb003450:	00000013          	nop
    bb003454:	00000013          	nop
    bb003458:	00000013          	nop
    bb00345c:	00000013          	nop
    bb003460:	00000013          	nop
    bb003464:	00000013          	nop
    bb003468:	00000013          	nop
    bb00346c:	00000013          	nop
    bb003470:	00000013          	nop
    bb003474:	00000013          	nop
    bb003478:	00000013          	nop
    bb00347c:	00000013          	nop
    bb003480:	00000013          	nop
    bb003484:	00000013          	nop
    bb003488:	00000013          	nop
    bb00348c:	00000013          	nop
    bb003490:	00000013          	nop
    bb003494:	00000013          	nop
    bb003498:	00000013          	nop
    bb00349c:	00000013          	nop
    bb0034a0:	00000013          	nop
    bb0034a4:	00000013          	nop
    bb0034a8:	00000013          	nop
    bb0034ac:	00000013          	nop
    bb0034b0:	00000013          	nop
    bb0034b4:	00000013          	nop
    bb0034b8:	00000013          	nop
    bb0034bc:	00000013          	nop
    bb0034c0:	00000013          	nop
    bb0034c4:	00000013          	nop
    bb0034c8:	00000013          	nop
    bb0034cc:	00000013          	nop
    bb0034d0:	00000013          	nop
    bb0034d4:	00000013          	nop
    bb0034d8:	00000013          	nop
    bb0034dc:	00000013          	nop
    bb0034e0:	00000013          	nop
    bb0034e4:	00000013          	nop
    bb0034e8:	00000013          	nop
    bb0034ec:	00000013          	nop
    bb0034f0:	00000013          	nop
    bb0034f4:	00000013          	nop
    bb0034f8:	00000013          	nop
    bb0034fc:	00000013          	nop
    bb003500:	00000013          	nop
    bb003504:	00000013          	nop
    bb003508:	00000013          	nop
    bb00350c:	00000013          	nop
    bb003510:	00000013          	nop
    bb003514:	00000013          	nop
    bb003518:	00000013          	nop
    bb00351c:	00000013          	nop
    bb003520:	00000013          	nop
    bb003524:	00000013          	nop
    bb003528:	00000013          	nop
    bb00352c:	00000013          	nop
    bb003530:	00000013          	nop
    bb003534:	00000013          	nop
    bb003538:	00000013          	nop
    bb00353c:	00000013          	nop
    bb003540:	00000013          	nop
    bb003544:	00000013          	nop
    bb003548:	00000013          	nop
    bb00354c:	00000013          	nop
    bb003550:	00000013          	nop
    bb003554:	00000013          	nop
    bb003558:	00000013          	nop
    bb00355c:	00000013          	nop
    bb003560:	00000013          	nop
    bb003564:	00000013          	nop
    bb003568:	00000013          	nop
    bb00356c:	00000013          	nop
    bb003570:	00000013          	nop
    bb003574:	00000013          	nop
    bb003578:	00000013          	nop
    bb00357c:	00000013          	nop
    bb003580:	00000013          	nop
    bb003584:	00000013          	nop
    bb003588:	00000013          	nop
    bb00358c:	00000013          	nop
    bb003590:	00000013          	nop
    bb003594:	00000013          	nop
    bb003598:	00000013          	nop
    bb00359c:	00000013          	nop
    bb0035a0:	00000013          	nop
    bb0035a4:	00000013          	nop
    bb0035a8:	00000013          	nop
    bb0035ac:	00000013          	nop
    bb0035b0:	00000013          	nop
    bb0035b4:	00000013          	nop
    bb0035b8:	00000013          	nop
    bb0035bc:	00000013          	nop
    bb0035c0:	00000013          	nop
    bb0035c4:	00000013          	nop
    bb0035c8:	00000013          	nop
    bb0035cc:	00000013          	nop
    bb0035d0:	00000013          	nop
    bb0035d4:	00000013          	nop
    bb0035d8:	00000013          	nop
    bb0035dc:	00000013          	nop
    bb0035e0:	00000013          	nop
    bb0035e4:	00000013          	nop
    bb0035e8:	00000013          	nop
    bb0035ec:	00000013          	nop
    bb0035f0:	00000013          	nop
    bb0035f4:	00000013          	nop
    bb0035f8:	00000013          	nop
    bb0035fc:	00000013          	nop
    bb003600:	00000013          	nop
    bb003604:	00000013          	nop
    bb003608:	00000013          	nop
    bb00360c:	00000013          	nop
    bb003610:	00000013          	nop
    bb003614:	00000013          	nop
    bb003618:	00000013          	nop
    bb00361c:	00000013          	nop
    bb003620:	00000013          	nop
    bb003624:	00000013          	nop
    bb003628:	00000013          	nop
    bb00362c:	00000013          	nop
    bb003630:	00000013          	nop
    bb003634:	00000013          	nop
    bb003638:	00000013          	nop
    bb00363c:	00000013          	nop
    bb003640:	00000013          	nop
    bb003644:	00000013          	nop
    bb003648:	00000013          	nop
    bb00364c:	00000013          	nop
    bb003650:	00000013          	nop
    bb003654:	00000013          	nop
    bb003658:	00000013          	nop
    bb00365c:	00000013          	nop
    bb003660:	00000013          	nop
    bb003664:	00000013          	nop
    bb003668:	00000013          	nop
    bb00366c:	00000013          	nop
    bb003670:	00000013          	nop
    bb003674:	00000013          	nop
    bb003678:	00000013          	nop
    bb00367c:	00000013          	nop
    bb003680:	00000013          	nop
    bb003684:	00000013          	nop
    bb003688:	00000013          	nop
    bb00368c:	00000013          	nop
    bb003690:	00000013          	nop
    bb003694:	00000013          	nop
    bb003698:	00000013          	nop
    bb00369c:	00000013          	nop
    bb0036a0:	00000013          	nop
    bb0036a4:	00000013          	nop
    bb0036a8:	00000013          	nop
    bb0036ac:	00000013          	nop
    bb0036b0:	00000013          	nop
    bb0036b4:	00000013          	nop
    bb0036b8:	00000013          	nop
    bb0036bc:	00000013          	nop
    bb0036c0:	00000013          	nop
    bb0036c4:	00000013          	nop
    bb0036c8:	00000013          	nop
    bb0036cc:	00000013          	nop
    bb0036d0:	00000013          	nop
    bb0036d4:	00000013          	nop
    bb0036d8:	00000013          	nop
    bb0036dc:	00000013          	nop
    bb0036e0:	00000013          	nop
    bb0036e4:	00000013          	nop
    bb0036e8:	00000013          	nop
    bb0036ec:	00000013          	nop
    bb0036f0:	00000013          	nop
    bb0036f4:	00000013          	nop
    bb0036f8:	00000013          	nop
    bb0036fc:	00000013          	nop
    bb003700:	00000013          	nop
    bb003704:	00000013          	nop
    bb003708:	00000013          	nop
    bb00370c:	00000013          	nop
    bb003710:	00000013          	nop
    bb003714:	00000013          	nop
    bb003718:	00000013          	nop
    bb00371c:	00000013          	nop
    bb003720:	00000013          	nop
    bb003724:	00000013          	nop
    bb003728:	00000013          	nop
    bb00372c:	00000013          	nop
    bb003730:	00000013          	nop
    bb003734:	00000013          	nop
    bb003738:	00000013          	nop
    bb00373c:	00000013          	nop
    bb003740:	00000013          	nop
    bb003744:	00000013          	nop
    bb003748:	00000013          	nop
    bb00374c:	00000013          	nop
    bb003750:	00000013          	nop
    bb003754:	00000013          	nop
    bb003758:	00000013          	nop
    bb00375c:	00000013          	nop
    bb003760:	00000013          	nop
    bb003764:	00000013          	nop
    bb003768:	00000013          	nop
    bb00376c:	00000013          	nop
    bb003770:	00000013          	nop
    bb003774:	00000013          	nop
    bb003778:	00000013          	nop
    bb00377c:	00000013          	nop
    bb003780:	00000013          	nop
    bb003784:	00000013          	nop
    bb003788:	00000013          	nop
    bb00378c:	00000013          	nop
    bb003790:	00000013          	nop
    bb003794:	00000013          	nop
    bb003798:	00000013          	nop
    bb00379c:	00000013          	nop
    bb0037a0:	00000013          	nop
    bb0037a4:	00000013          	nop
    bb0037a8:	00000013          	nop
    bb0037ac:	00000013          	nop
    bb0037b0:	00000013          	nop
    bb0037b4:	00000013          	nop
    bb0037b8:	00000013          	nop
    bb0037bc:	00000013          	nop
    bb0037c0:	00000013          	nop
    bb0037c4:	00000013          	nop
    bb0037c8:	00000013          	nop
    bb0037cc:	00000013          	nop
    bb0037d0:	00000013          	nop
    bb0037d4:	00000013          	nop
    bb0037d8:	00000013          	nop
    bb0037dc:	00000013          	nop
    bb0037e0:	00000013          	nop
    bb0037e4:	00000013          	nop
    bb0037e8:	00000013          	nop
    bb0037ec:	00000013          	nop
    bb0037f0:	00000013          	nop
    bb0037f4:	00000013          	nop
    bb0037f8:	00000013          	nop
    bb0037fc:	00000013          	nop
    bb003800:	00000013          	nop
    bb003804:	00000013          	nop
    bb003808:	00000013          	nop
    bb00380c:	00000013          	nop
    bb003810:	00000013          	nop
    bb003814:	00000013          	nop
    bb003818:	00000013          	nop
    bb00381c:	00000013          	nop
    bb003820:	00000013          	nop
    bb003824:	00000013          	nop
    bb003828:	00000013          	nop
    bb00382c:	00000013          	nop
    bb003830:	00000013          	nop
    bb003834:	00000013          	nop
    bb003838:	00000013          	nop
    bb00383c:	00000013          	nop
    bb003840:	00000013          	nop
    bb003844:	00000013          	nop
    bb003848:	00000013          	nop
    bb00384c:	00000013          	nop
    bb003850:	00000013          	nop
    bb003854:	00000013          	nop
    bb003858:	00000013          	nop
    bb00385c:	00000013          	nop
    bb003860:	00000013          	nop
    bb003864:	00000013          	nop
    bb003868:	00000013          	nop
    bb00386c:	00000013          	nop
    bb003870:	00000013          	nop
    bb003874:	00000013          	nop
    bb003878:	00000013          	nop
    bb00387c:	00000013          	nop
    bb003880:	00000013          	nop
    bb003884:	00000013          	nop
    bb003888:	00000013          	nop
    bb00388c:	00000013          	nop
    bb003890:	00000013          	nop
    bb003894:	00000013          	nop
    bb003898:	00000013          	nop
    bb00389c:	00000013          	nop
    bb0038a0:	00000013          	nop
    bb0038a4:	00000013          	nop
    bb0038a8:	00000013          	nop
    bb0038ac:	00000013          	nop
    bb0038b0:	00000013          	nop
    bb0038b4:	00000013          	nop
    bb0038b8:	00000013          	nop
    bb0038bc:	00000013          	nop
    bb0038c0:	00000013          	nop
    bb0038c4:	00000013          	nop
    bb0038c8:	00000013          	nop
    bb0038cc:	00000013          	nop
    bb0038d0:	00000013          	nop
    bb0038d4:	00000013          	nop
    bb0038d8:	00000013          	nop
    bb0038dc:	00000013          	nop
    bb0038e0:	00000013          	nop
    bb0038e4:	00000013          	nop
    bb0038e8:	00000013          	nop
    bb0038ec:	00000013          	nop
    bb0038f0:	00000013          	nop
    bb0038f4:	00000013          	nop
    bb0038f8:	00000013          	nop
    bb0038fc:	00000013          	nop
    bb003900:	00000013          	nop
    bb003904:	00000013          	nop
    bb003908:	00000013          	nop
    bb00390c:	00000013          	nop
    bb003910:	00000013          	nop
    bb003914:	00000013          	nop
    bb003918:	00000013          	nop
    bb00391c:	00000013          	nop
    bb003920:	00000013          	nop
    bb003924:	00000013          	nop
    bb003928:	00000013          	nop
    bb00392c:	00000013          	nop
    bb003930:	00000013          	nop
    bb003934:	00000013          	nop
    bb003938:	00000013          	nop
    bb00393c:	00000013          	nop
    bb003940:	00000013          	nop
    bb003944:	00000013          	nop
    bb003948:	00000013          	nop
    bb00394c:	00000013          	nop
    bb003950:	00000013          	nop
    bb003954:	00000013          	nop
    bb003958:	00000013          	nop
    bb00395c:	00000013          	nop
    bb003960:	00000013          	nop
    bb003964:	00000013          	nop
    bb003968:	00000013          	nop
    bb00396c:	00000013          	nop
    bb003970:	00000013          	nop
    bb003974:	00000013          	nop
    bb003978:	00000013          	nop
    bb00397c:	00000013          	nop
    bb003980:	00000013          	nop
    bb003984:	00000013          	nop
    bb003988:	00000013          	nop
    bb00398c:	00000013          	nop
    bb003990:	00000013          	nop
    bb003994:	00000013          	nop
    bb003998:	00000013          	nop
    bb00399c:	00000013          	nop
    bb0039a0:	00000013          	nop
    bb0039a4:	00000013          	nop
    bb0039a8:	00000013          	nop
    bb0039ac:	00000013          	nop
    bb0039b0:	00000013          	nop
    bb0039b4:	00000013          	nop
    bb0039b8:	00000013          	nop
    bb0039bc:	00000013          	nop
    bb0039c0:	00000013          	nop
    bb0039c4:	00000013          	nop
    bb0039c8:	00000013          	nop
    bb0039cc:	00000013          	nop
    bb0039d0:	00000013          	nop
    bb0039d4:	00000013          	nop
    bb0039d8:	00000013          	nop
    bb0039dc:	00000013          	nop
    bb0039e0:	00000013          	nop
    bb0039e4:	00000013          	nop
    bb0039e8:	00000013          	nop
    bb0039ec:	00000013          	nop
    bb0039f0:	00000013          	nop
    bb0039f4:	00000013          	nop
    bb0039f8:	00000013          	nop
    bb0039fc:	00000013          	nop
    bb003a00:	00000013          	nop
    bb003a04:	00000013          	nop
    bb003a08:	00000013          	nop
    bb003a0c:	00000013          	nop
    bb003a10:	00000013          	nop
    bb003a14:	00000013          	nop
    bb003a18:	00000013          	nop
    bb003a1c:	00000013          	nop
    bb003a20:	00000013          	nop
    bb003a24:	00000013          	nop
    bb003a28:	00000013          	nop
    bb003a2c:	00000013          	nop
    bb003a30:	00000013          	nop
    bb003a34:	00000013          	nop
    bb003a38:	00000013          	nop
    bb003a3c:	00000013          	nop
    bb003a40:	00000013          	nop
    bb003a44:	00000013          	nop
    bb003a48:	00000013          	nop
    bb003a4c:	00000013          	nop
    bb003a50:	00000013          	nop
    bb003a54:	00000013          	nop
    bb003a58:	00000013          	nop
    bb003a5c:	00000013          	nop
    bb003a60:	00000013          	nop
    bb003a64:	00000013          	nop
    bb003a68:	00000013          	nop
    bb003a6c:	00000013          	nop
    bb003a70:	00000013          	nop
    bb003a74:	00000013          	nop
    bb003a78:	00000013          	nop
    bb003a7c:	00000013          	nop
    bb003a80:	00000013          	nop
    bb003a84:	00000013          	nop
    bb003a88:	00000013          	nop
    bb003a8c:	00000013          	nop
    bb003a90:	00000013          	nop
    bb003a94:	00000013          	nop
    bb003a98:	00000013          	nop
    bb003a9c:	00000013          	nop
    bb003aa0:	00000013          	nop
    bb003aa4:	00000013          	nop
    bb003aa8:	00000013          	nop
    bb003aac:	00000013          	nop
    bb003ab0:	00000013          	nop
    bb003ab4:	00000013          	nop
    bb003ab8:	00000013          	nop
    bb003abc:	00000013          	nop
    bb003ac0:	00000013          	nop
    bb003ac4:	00000013          	nop
    bb003ac8:	00000013          	nop
    bb003acc:	00000013          	nop
    bb003ad0:	00000013          	nop
    bb003ad4:	00000013          	nop
    bb003ad8:	00000013          	nop
    bb003adc:	00000013          	nop
    bb003ae0:	00000013          	nop
    bb003ae4:	00000013          	nop
    bb003ae8:	00000013          	nop
    bb003aec:	00000013          	nop
    bb003af0:	00000013          	nop
    bb003af4:	00000013          	nop
    bb003af8:	00000013          	nop
    bb003afc:	00000013          	nop
    bb003b00:	00000013          	nop
    bb003b04:	00000013          	nop
    bb003b08:	00000013          	nop
    bb003b0c:	00000013          	nop
    bb003b10:	00000013          	nop
    bb003b14:	00000013          	nop
    bb003b18:	00000013          	nop
    bb003b1c:	00000013          	nop
    bb003b20:	00000013          	nop
    bb003b24:	00000013          	nop
    bb003b28:	00000013          	nop
    bb003b2c:	00000013          	nop
    bb003b30:	00000013          	nop
    bb003b34:	00000013          	nop
    bb003b38:	00000013          	nop
    bb003b3c:	00000013          	nop
    bb003b40:	00000013          	nop
    bb003b44:	00000013          	nop
    bb003b48:	00000013          	nop
    bb003b4c:	00000013          	nop
    bb003b50:	00000013          	nop
    bb003b54:	00000013          	nop
    bb003b58:	00000013          	nop
    bb003b5c:	00000013          	nop
    bb003b60:	00000013          	nop
    bb003b64:	00000013          	nop
    bb003b68:	00000013          	nop
    bb003b6c:	00000013          	nop
    bb003b70:	00000013          	nop
    bb003b74:	00000013          	nop
    bb003b78:	00000013          	nop
    bb003b7c:	00000013          	nop
    bb003b80:	00000013          	nop
    bb003b84:	00000013          	nop
    bb003b88:	00000013          	nop
    bb003b8c:	00000013          	nop
    bb003b90:	00000013          	nop
    bb003b94:	00000013          	nop
    bb003b98:	00000013          	nop
    bb003b9c:	00000013          	nop
    bb003ba0:	00000013          	nop
    bb003ba4:	00000013          	nop
    bb003ba8:	00000013          	nop
    bb003bac:	00000013          	nop
    bb003bb0:	00000013          	nop
    bb003bb4:	00000013          	nop
    bb003bb8:	00000013          	nop
    bb003bbc:	00000013          	nop
    bb003bc0:	00000013          	nop
    bb003bc4:	00000013          	nop
    bb003bc8:	00000013          	nop
    bb003bcc:	00000013          	nop
    bb003bd0:	00000013          	nop
    bb003bd4:	00000013          	nop
    bb003bd8:	00000013          	nop
    bb003bdc:	00000013          	nop
    bb003be0:	00000013          	nop
    bb003be4:	00000013          	nop
    bb003be8:	00000013          	nop
    bb003bec:	00000013          	nop
    bb003bf0:	00000013          	nop
    bb003bf4:	00000013          	nop
    bb003bf8:	00000013          	nop
    bb003bfc:	00000013          	nop
    bb003c00:	00000013          	nop
    bb003c04:	00000013          	nop
    bb003c08:	00000013          	nop
    bb003c0c:	00000013          	nop
    bb003c10:	00000013          	nop
    bb003c14:	00000013          	nop
    bb003c18:	00000013          	nop
    bb003c1c:	00000013          	nop
    bb003c20:	00000013          	nop
    bb003c24:	00000013          	nop
    bb003c28:	00000013          	nop
    bb003c2c:	00000013          	nop
    bb003c30:	00000013          	nop
    bb003c34:	00000013          	nop
    bb003c38:	00000013          	nop
    bb003c3c:	00000013          	nop
    bb003c40:	00000013          	nop
    bb003c44:	00000013          	nop
    bb003c48:	00000013          	nop
    bb003c4c:	00000013          	nop
    bb003c50:	00000013          	nop
    bb003c54:	00000013          	nop
    bb003c58:	00000013          	nop
    bb003c5c:	00000013          	nop
    bb003c60:	00000013          	nop
    bb003c64:	00000013          	nop
    bb003c68:	00000013          	nop
    bb003c6c:	00000013          	nop
    bb003c70:	00000013          	nop
    bb003c74:	00000013          	nop
    bb003c78:	00000013          	nop
    bb003c7c:	00000013          	nop
    bb003c80:	00000013          	nop
    bb003c84:	00000013          	nop
    bb003c88:	00000013          	nop
    bb003c8c:	00000013          	nop
    bb003c90:	00000013          	nop
    bb003c94:	00000013          	nop
    bb003c98:	00000013          	nop
    bb003c9c:	00000013          	nop
    bb003ca0:	00000013          	nop
    bb003ca4:	00000013          	nop
    bb003ca8:	00000013          	nop
    bb003cac:	00000013          	nop
    bb003cb0:	00000013          	nop
    bb003cb4:	00000013          	nop
    bb003cb8:	00000013          	nop
    bb003cbc:	00000013          	nop
    bb003cc0:	00000013          	nop
    bb003cc4:	00000013          	nop
    bb003cc8:	00000013          	nop
    bb003ccc:	00000013          	nop
    bb003cd0:	00000013          	nop
    bb003cd4:	00000013          	nop
    bb003cd8:	00000013          	nop
    bb003cdc:	00000013          	nop
    bb003ce0:	00000013          	nop
    bb003ce4:	00000013          	nop
    bb003ce8:	00000013          	nop
    bb003cec:	00000013          	nop
    bb003cf0:	00000013          	nop
    bb003cf4:	00000013          	nop
    bb003cf8:	00000013          	nop
    bb003cfc:	00000013          	nop
    bb003d00:	00000013          	nop
    bb003d04:	00000013          	nop
    bb003d08:	00000013          	nop
    bb003d0c:	00000013          	nop
    bb003d10:	00000013          	nop
    bb003d14:	00000013          	nop
    bb003d18:	00000013          	nop
    bb003d1c:	00000013          	nop
    bb003d20:	00000013          	nop
    bb003d24:	00000013          	nop
    bb003d28:	00000013          	nop
    bb003d2c:	00000013          	nop
    bb003d30:	00000013          	nop
    bb003d34:	00000013          	nop
    bb003d38:	00000013          	nop
    bb003d3c:	00000013          	nop
    bb003d40:	00000013          	nop
    bb003d44:	00000013          	nop
    bb003d48:	00000013          	nop
    bb003d4c:	00000013          	nop
    bb003d50:	00000013          	nop
    bb003d54:	00000013          	nop
    bb003d58:	00000013          	nop
    bb003d5c:	00000013          	nop
    bb003d60:	00000013          	nop
    bb003d64:	00000013          	nop
    bb003d68:	00000013          	nop
    bb003d6c:	00000013          	nop
    bb003d70:	00000013          	nop
    bb003d74:	00000013          	nop
    bb003d78:	00000013          	nop
    bb003d7c:	00000013          	nop
    bb003d80:	00000013          	nop
    bb003d84:	00000013          	nop
    bb003d88:	00000013          	nop
    bb003d8c:	00000013          	nop
    bb003d90:	00000013          	nop
    bb003d94:	00000013          	nop
    bb003d98:	00000013          	nop
    bb003d9c:	00000013          	nop
    bb003da0:	00000013          	nop
    bb003da4:	00000013          	nop
    bb003da8:	00000013          	nop
    bb003dac:	00000013          	nop
    bb003db0:	00000013          	nop
    bb003db4:	00000013          	nop
    bb003db8:	00000013          	nop
    bb003dbc:	00000013          	nop
    bb003dc0:	00000013          	nop
    bb003dc4:	00000013          	nop
    bb003dc8:	00000013          	nop
    bb003dcc:	00000013          	nop
    bb003dd0:	00000013          	nop
    bb003dd4:	00000013          	nop
    bb003dd8:	00000013          	nop
    bb003ddc:	00000013          	nop
    bb003de0:	00000013          	nop
    bb003de4:	00000013          	nop
    bb003de8:	00000013          	nop
    bb003dec:	00000013          	nop
    bb003df0:	00000013          	nop
    bb003df4:	00000013          	nop
    bb003df8:	00000013          	nop
    bb003dfc:	00000013          	nop
    bb003e00:	00000013          	nop
    bb003e04:	00000013          	nop
    bb003e08:	00000013          	nop
    bb003e0c:	00000013          	nop
    bb003e10:	00000013          	nop
    bb003e14:	00000013          	nop
    bb003e18:	00000013          	nop
    bb003e1c:	00000013          	nop
    bb003e20:	00000013          	nop
    bb003e24:	00000013          	nop
    bb003e28:	00000013          	nop
    bb003e2c:	00000013          	nop
    bb003e30:	00000013          	nop
    bb003e34:	00000013          	nop
    bb003e38:	00000013          	nop
    bb003e3c:	00000013          	nop
    bb003e40:	00000013          	nop
    bb003e44:	00000013          	nop
    bb003e48:	00000013          	nop
    bb003e4c:	00000013          	nop
    bb003e50:	00000013          	nop
    bb003e54:	00000013          	nop
    bb003e58:	00000013          	nop
    bb003e5c:	00000013          	nop
    bb003e60:	00000013          	nop
    bb003e64:	00000013          	nop
    bb003e68:	00000013          	nop
    bb003e6c:	00000013          	nop
    bb003e70:	00000013          	nop
    bb003e74:	00000013          	nop
    bb003e78:	00000013          	nop
    bb003e7c:	00000013          	nop
    bb003e80:	00000013          	nop
    bb003e84:	00000013          	nop
    bb003e88:	00000013          	nop
    bb003e8c:	00000013          	nop
    bb003e90:	00000013          	nop
    bb003e94:	00000013          	nop
    bb003e98:	00000013          	nop
    bb003e9c:	00000013          	nop
    bb003ea0:	00000013          	nop
    bb003ea4:	00000013          	nop
    bb003ea8:	00000013          	nop
    bb003eac:	00000013          	nop
    bb003eb0:	00000013          	nop
    bb003eb4:	00000013          	nop
    bb003eb8:	00000013          	nop
    bb003ebc:	00000013          	nop
    bb003ec0:	00000013          	nop
    bb003ec4:	00000013          	nop
    bb003ec8:	00000013          	nop
    bb003ecc:	00000013          	nop
    bb003ed0:	00000013          	nop
    bb003ed4:	00000013          	nop
    bb003ed8:	00000013          	nop
    bb003edc:	00000013          	nop
    bb003ee0:	00000013          	nop
    bb003ee4:	00000013          	nop
    bb003ee8:	00000013          	nop
    bb003eec:	00000013          	nop
    bb003ef0:	00000013          	nop
    bb003ef4:	00000013          	nop
    bb003ef8:	00000013          	nop
    bb003efc:	00000013          	nop
    bb003f00:	00000013          	nop
    bb003f04:	00000013          	nop
    bb003f08:	00000013          	nop
    bb003f0c:	00000013          	nop
    bb003f10:	00000013          	nop
    bb003f14:	00000013          	nop
    bb003f18:	00000013          	nop
    bb003f1c:	00000013          	nop
    bb003f20:	00000013          	nop
    bb003f24:	00000013          	nop
    bb003f28:	00000013          	nop
    bb003f2c:	00000013          	nop
    bb003f30:	00000013          	nop
    bb003f34:	00000013          	nop
    bb003f38:	00000013          	nop
    bb003f3c:	00000013          	nop
    bb003f40:	00000013          	nop
    bb003f44:	00000013          	nop
    bb003f48:	00000013          	nop
    bb003f4c:	00000013          	nop
    bb003f50:	00000013          	nop
    bb003f54:	00000013          	nop
    bb003f58:	00000013          	nop
    bb003f5c:	00000013          	nop
    bb003f60:	00000013          	nop
    bb003f64:	00000013          	nop
    bb003f68:	00000013          	nop
    bb003f6c:	00000013          	nop
    bb003f70:	00000013          	nop
    bb003f74:	00000013          	nop
    bb003f78:	00000013          	nop
    bb003f7c:	00000013          	nop
    bb003f80:	00000013          	nop
    bb003f84:	00000013          	nop
    bb003f88:	00000013          	nop
    bb003f8c:	00000013          	nop
    bb003f90:	00000013          	nop
    bb003f94:	00000013          	nop
    bb003f98:	00000013          	nop
    bb003f9c:	00000013          	nop
    bb003fa0:	00000013          	nop
    bb003fa4:	00000013          	nop
    bb003fa8:	00000013          	nop
    bb003fac:	00000013          	nop
    bb003fb0:	00000013          	nop
    bb003fb4:	00000013          	nop
    bb003fb8:	00000013          	nop
    bb003fbc:	00000013          	nop
    bb003fc0:	00000013          	nop
    bb003fc4:	00000013          	nop
    bb003fc8:	00000013          	nop
    bb003fcc:	00000013          	nop
    bb003fd0:	00000013          	nop
    bb003fd4:	00000013          	nop
    bb003fd8:	00000013          	nop
    bb003fdc:	00000013          	nop
    bb003fe0:	00000013          	nop
    bb003fe4:	00000013          	nop
    bb003fe8:	00000013          	nop
    bb003fec:	00000013          	nop
    bb003ff0:	00000013          	nop
    bb003ff4:	00000013          	nop
    bb003ff8:	00000013          	nop
    bb003ffc:	00000013          	nop

00000000bb004000 <l3_table>:
	...

00000000bb005000 <l2_table>:
	...

00000000bb006000 <l1_user>:
	...

00000000bb007000 <l1_sup>:
	...

00000000bb008000 <l0_user>:
	...

00000000bb009000 <l0_sup>:
	...

00000000bb00a000 <satp_config>:
	...
